LIBRARY UE4SS
EXPORTS
    ?$TSS0@?1??GetValueProperty@FOptionalProperty@Unreal@RC@@QEBAAEAPEAVFProperty@34@XZ@4HA
    ?$TSS0@?1??GetValueProperty@FOptionalPropertyLayout@Unreal@RC@@QEBAAEAPEAVFProperty@34@XZ@4HA
    ??$LogBogusChars@DG@FGenericPlatformString@Unreal@RC@@CAXPEBG@Z
    ??$LogBogusChars@DG@FGenericPlatformString@Unreal@RC@@CAXPEBGH@Z
    ??$LogBogusChars@D_W@FGenericPlatformString@Unreal@RC@@CAXPEB_W@Z
    ??$LogBogusChars@D_W@FGenericPlatformString@Unreal@RC@@CAXPEB_WH@Z
    ??$LogBogusChars@GD@FGenericPlatformString@Unreal@RC@@CAXPEBD@Z
    ??$LogBogusChars@GD@FGenericPlatformString@Unreal@RC@@CAXPEBDH@Z
    ??$LogBogusChars@G_W@FGenericPlatformString@Unreal@RC@@CAXPEB_W@Z
    ??$LogBogusChars@G_W@FGenericPlatformString@Unreal@RC@@CAXPEB_WH@Z
    ??$LogBogusChars@_QD@FGenericPlatformString@Unreal@RC@@CAXPEBD@Z
    ??$LogBogusChars@_QD@FGenericPlatformString@Unreal@RC@@CAXPEBDH@Z
    ??$LogBogusChars@_QG@FGenericPlatformString@Unreal@RC@@CAXPEBG@Z
    ??$LogBogusChars@_QG@FGenericPlatformString@Unreal@RC@@CAXPEBGH@Z
    ??$LogBogusChars@_Q_W@FGenericPlatformString@Unreal@RC@@CAXPEB_W@Z
    ??$LogBogusChars@_Q_W@FGenericPlatformString@Unreal@RC@@CAXPEB_WH@Z
    ??$LogBogusChars@_WD@FGenericPlatformString@Unreal@RC@@CAXPEBD@Z
    ??$LogBogusChars@_WD@FGenericPlatformString@Unreal@RC@@CAXPEBDH@Z
    ??$LogBogusChars@_WG@FGenericPlatformString@Unreal@RC@@CAXPEBG@Z
    ??$LogBogusChars@_WG@FGenericPlatformString@Unreal@RC@@CAXPEBGH@Z
    ??$find_mod_by_name@VCppMod@RC@@@UE4SSProgram@RC@@SAPEAVCppMod@1@V?$basic_string_view@DU?$char_traits@D@std@@@std@@W4IsInstalled@01@W4IsStarted@01@@Z
    ??$find_mod_by_name@VCppMod@RC@@@UE4SSProgram@RC@@SAPEAVCppMod@1@V?$basic_string_view@_WU?$char_traits@_W@std@@@std@@W4IsInstalled@01@W4IsStarted@01@@Z
    ??$find_mod_by_name@VLuaMod@RC@@@UE4SSProgram@RC@@SAPEAVLuaMod@1@V?$basic_string_view@DU?$char_traits@D@std@@@std@@W4IsInstalled@01@W4IsStarted@01@@Z
    ??$find_mod_by_name@VLuaMod@RC@@@UE4SSProgram@RC@@SAPEAVLuaMod@1@V?$basic_string_view@_WU?$char_traits@_W@std@@@std@@W4IsInstalled@01@W4IsStarted@01@@Z
    ??0?$FileInterface@VWinFile@File@RC@@@File@RC@@QEAA@AEBV012@@Z
    ??0?$FileInterface@VWinFile@File@RC@@@File@RC@@QEAA@XZ
    ??0?$LuaTableData@$0?0@LuaMadeSimple@RC@@QEAA@XZ
    ??0?$LuaTableData@$0?1@LuaMadeSimple@RC@@QEAA@XZ
    ??0?$TStringBase@D@Unreal@RC@@QEAA@$$QEAV012@@Z
    ??0?$TStringBase@D@Unreal@RC@@QEAA@AEBV012@@Z
    ??0?$TStringBase@D@Unreal@RC@@QEAA@PEAD@Z
    ??0?$TStringBase@D@Unreal@RC@@QEAA@PEBD@Z
    ??0?$TStringBase@D@Unreal@RC@@QEAA@XZ
    ??0?$TStringBase@_Q@Unreal@RC@@QEAA@$$QEAV012@@Z
    ??0?$TStringBase@_Q@Unreal@RC@@QEAA@AEBV012@@Z
    ??0?$TStringBase@_Q@Unreal@RC@@QEAA@PEA_Q@Z
    ??0?$TStringBase@_Q@Unreal@RC@@QEAA@PEB_Q@Z
    ??0?$TStringBase@_Q@Unreal@RC@@QEAA@XZ
    ??0?$TStringBase@_W@Unreal@RC@@QEAA@$$QEAV012@@Z
    ??0?$TStringBase@_W@Unreal@RC@@QEAA@AEBV012@@Z
    ??0?$TStringBase@_W@Unreal@RC@@QEAA@PEA_W@Z
    ??0?$TStringBase@_W@Unreal@RC@@QEAA@PEB_W@Z
    ??0?$TStringBase@_W@Unreal@RC@@QEAA@XZ
    ??0BaseObject@Type@LuaMadeSimple@RC@@IEAA@PEBD@Z
    ??0CppUserModBase@RC@@QEAA@XZ
    ??0DebugConsoleDevice@Output@RC@@QEAA@AEBV012@@Z
    ??0DebugConsoleDevice@Output@RC@@QEAA@XZ
    ??0FAnsiString@Unreal@RC@@QEAA@AEBV012@@Z
    ??0FAnsiString@Unreal@RC@@QEAA@AEBV?$basic_string@_WU?$char_traits@_W@std@@V?$allocator@_W@2@@std@@@Z
    ??0FAnsiString@Unreal@RC@@QEAA@AEBVFString@12@@Z
    ??0FAnsiString@Unreal@RC@@QEAA@PEAD@Z
    ??0FAnsiString@Unreal@RC@@QEAA@PEBD@Z
    ??0FAnsiString@Unreal@RC@@QEAA@XZ
    ??0FAssetData427Plus@Unreal@RC@@QEAA@$$QEAU012@@Z
    ??0FAssetData427Plus@Unreal@RC@@QEAA@AEBU012@@Z
    ??0FAssetData427Plus@Unreal@RC@@QEAA@XZ
    ??0FAssetData51Plus@Unreal@RC@@QEAA@$$QEAU012@@Z
    ??0FAssetData51Plus@Unreal@RC@@QEAA@AEBU012@@Z
    ??0FAssetData51Plus@Unreal@RC@@QEAA@XZ
    ??0FAssetData@Unreal@RC@@QEAA@AEBU012@@Z
    ??0FAssetData@Unreal@RC@@QEAA@XZ
    ??0FAssetDataPre427@Unreal@RC@@QEAA@$$QEAU012@@Z
    ??0FAssetDataPre427@Unreal@RC@@QEAA@AEBU012@@Z
    ??0FAssetDataPre427@Unreal@RC@@QEAA@XZ
    ??0FCallbackIterationDataCommonImpl@Internal@Hook@Unreal@RC@@QEAA@V?$basic_string_view@_WU?$char_traits@_W@std@@@std@@@Z
    ??0FCallbackMetadata@Internal@Hook@Unreal@RC@@QEAA@_KV?$basic_string@_WU?$char_traits@_W@std@@V?$allocator@_W@2@@std@@1@Z
    ??0FCallbackOptions@Hook@Unreal@RC@@QEAA@$$QEAU0123@@Z
    ??0FCallbackOptions@Hook@Unreal@RC@@QEAA@AEBU0123@@Z
    ??0FCallbackOptions@Hook@Unreal@RC@@QEAA@XZ
    ??0FClassCreateListener@Unreal@RC@@QEAA@$$QEAU012@@Z
    ??0FClassCreateListener@Unreal@RC@@QEAA@AEBU012@@Z
    ??0FClassCreateListener@Unreal@RC@@QEAA@XZ
    ??0FClassDeleteListener@Unreal@RC@@QEAA@$$QEAU012@@Z
    ??0FClassDeleteListener@Unreal@RC@@QEAA@AEBU012@@Z
    ??0FClassDeleteListener@Unreal@RC@@QEAA@XZ
    ??0FCustomPropertyListNode@Unreal@RC@@QEAA@PEAVFProperty@12@H@Z
    ??0FFieldClass@Unreal@RC@@QEAA@XZ
    ??0FFieldClassRegistrar@Internal@Unreal@RC@@IEAA@PEAVFFieldClassVariant@23@PEB_W@Z
    ??0FFieldClassVariant@Unreal@RC@@QEAA@PEAVFFieldClass@12@@Z
    ??0FFieldClassVariant@Unreal@RC@@QEAA@PEAVUClass@12@@Z
    ??0FFieldClassVariant@Unreal@RC@@QEAA@PEBVFFieldClass@12@@Z
    ??0FFieldClassVariant@Unreal@RC@@QEAA@PEBVUClass@12@@Z
    ??0FFieldClassVariant@Unreal@RC@@QEAA@XZ
    ??0FFieldPath@Unreal@RC@@QEAA@$$QEAU012@@Z
    ??0FFieldPath@Unreal@RC@@QEAA@AEBU012@@Z
    ??0FFieldPath@Unreal@RC@@QEAA@XZ
    ??0FFieldVariant@Unreal@RC@@QEAA@PEAVFField@12@@Z
    ??0FFieldVariant@Unreal@RC@@QEAA@PEAVUObject@12@@Z
    ??0FFrame_50_AndBelow@Unreal@RC@@QEAA@$$QEAU012@@Z
    ??0FFrame_50_AndBelow@Unreal@RC@@QEAA@AEBU012@@Z
    ??0FFrame_50_AndBelow@Unreal@RC@@QEAA@XZ
    ??0FFrame_51_AndAbove@Unreal@RC@@QEAA@$$QEAU012@@Z
    ??0FFrame_51_AndAbove@Unreal@RC@@QEAA@AEBU012@@Z
    ??0FFrame_51_AndAbove@Unreal@RC@@QEAA@XZ
    ??0FGuid@Unreal@RC@@QEAA@IIII@Z
    ??0FGuid@Unreal@RC@@QEAA@XZ
    ??0FMemoryImageAllocatorBase@Unreal@RC@@QEAA@XZ
    ??0FName@Unreal@RC@@QEAA@II@Z
    ??0FName@Unreal@RC@@QEAA@PEB_WW4EFindName@12@PEAX@Z
    ??0FName@Unreal@RC@@QEAA@V?$basic_string_view@_WU?$char_traits@_W@std@@@std@@IW4EFindName@12@PEAX@Z
    ??0FName@Unreal@RC@@QEAA@V?$basic_string_view@_WU?$char_traits@_W@std@@@std@@W4EFindName@12@PEAX@Z
    ??0FName@Unreal@RC@@QEAA@XZ
    ??0FName@Unreal@RC@@QEAA@_J@Z
    ??0FNativeFunctionLookup@Unreal@RC@@QEAA@VFName@12@P6AXPEAVUObject@12@AEAUFFrame@12@PEAX@Z@Z
    ??0FOutParmRec@Unreal@RC@@QEAA@XZ
    ??0FOutputDevice@Unreal@RC@@QEAA@AEBV012@@Z
    ??0FOutputDevice@Unreal@RC@@QEAA@XZ
    ??0FQuat@Unreal@RC@@QEAA@AEBUFRotator@12@@Z
    ??0FQuat@Unreal@RC@@QEAA@NNNN@Z
    ??0FQuat@Unreal@RC@@QEAA@XZ
    ??0FRotator@Unreal@RC@@QEAA@NNN@Z
    ??0FRotator@Unreal@RC@@QEAA@XZ
    ??0FSparseDelegate@Unreal@RC@@QEAA@XZ
    ??0FStaticConstructObjectParameters@Unreal@RC@@QEAA@PEBVUClass@12@PEAVUObject@12@@Z
    ??0FString@Unreal@RC@@QEAA@AEBV012@@Z
    ??0FString@Unreal@RC@@QEAA@AEBV?$basic_string@_WU?$char_traits@_W@std@@V?$allocator@_W@2@@std@@@Z
    ??0FString@Unreal@RC@@QEAA@PEA_W@Z
    ??0FString@Unreal@RC@@QEAA@PEB_W@Z
    ??0FString@Unreal@RC@@QEAA@XZ
    ??0FStringOut@Unreal@RC@@QEAA@$$QEAV012@@Z
    ??0FStringOut@Unreal@RC@@QEAA@AEBV012@@Z
    ??0FStringOut@Unreal@RC@@QEAA@XZ
    ??0FTableRowBase@Unreal@RC@@QEAA@AEBU012@@Z
    ??0FTableRowBase@Unreal@RC@@QEAA@XZ
    ??0FText@Unreal@RC@@QEAA@$$QEBVFString@12@@Z
    ??0FText@Unreal@RC@@QEAA@AEBV012@@Z
    ??0FText@Unreal@RC@@QEAA@PEB_W@Z
    ??0FText@Unreal@RC@@QEAA@V?$basic_string_view@_WU?$char_traits@_W@std@@@std@@@Z
    ??0FText@Unreal@RC@@QEAA@XZ
    ??0FTransform@Unreal@RC@@QEAA@UFQuat@12@UFVector@12@1@Z
    ??0FTransform@Unreal@RC@@QEAA@XZ
    ??0FUObjectCreateListener@Unreal@RC@@QEAA@AEBV012@@Z
    ??0FUObjectCreateListener@Unreal@RC@@QEAA@XZ
    ??0FUObjectDeleteListener@Unreal@RC@@QEAA@AEBV012@@Z
    ??0FUObjectDeleteListener@Unreal@RC@@QEAA@XZ
    ??0FURL@Unreal@RC@@QEAA@$$QEAU012@@Z
    ??0FURL@Unreal@RC@@QEAA@AEBU012@@Z
    ??0FURL@Unreal@RC@@QEAA@XZ
    ??0FUtf8String@Unreal@RC@@QEAA@AEBV012@@Z
    ??0FUtf8String@Unreal@RC@@QEAA@AEBV?$basic_string@_WU?$char_traits@_W@std@@V?$allocator@_W@2@@std@@@Z
    ??0FUtf8String@Unreal@RC@@QEAA@AEBVFString@12@@Z
    ??0FUtf8String@Unreal@RC@@QEAA@PEA_Q@Z
    ??0FUtf8String@Unreal@RC@@QEAA@PEB_Q@Z
    ??0FUtf8String@Unreal@RC@@QEAA@XZ
    ??0FWeakObjectPtr@Unreal@RC@@QEAA@PEAVUObject@12@@Z
    ??0FWeakObjectPtr@Unreal@RC@@QEAA@PEBVUObject@12@@Z
    ??0FWeakObjectPtr@Unreal@RC@@QEAA@XZ
    ??0Handler@Input@RC@@QEAA@XZ
    ??0Lua@LuaMadeSimple@RC@@QEAA@PEAUlua_State@@@Z
    ??0LuaTableReference@LuaMadeSimple@RC@@QEAA@XZ
    ??0MetaMethodContainer@Type@LuaMadeSimple@RC@@QEAA@XZ
    ??0Mod@RC@@QEAA@AEAVUE4SSProgram@1@$$QEAV?$basic_string@_WU?$char_traits@_W@std@@V?$allocator@_W@2@@std@@$$QEAVpath@filesystem@4@@Z
    ??0Mod@RC@@QEAA@AEBV01@@Z
    ??0OutputDevice@Output@RC@@QEAA@AEBV012@@Z
    ??0OutputDevice@Output@RC@@QEAA@XZ
    ??0ReflectedFunctionBase@Unreal@RC@@QEAA@PEB_W@Z
    ??0Registry@Lua@LuaMadeSimple@RC@@QEAA@AEBV123@@Z
    ??0ScanError@Signatures@Unreal@RC@@QEAA@$$QEAU0123@@Z
    ??0ScanError@Signatures@Unreal@RC@@QEAA@AEBU0123@@Z
    ??0ScanError@Signatures@Unreal@RC@@QEAA@V?$basic_string_view@DU?$char_traits@D@std@@@std@@_N@Z
    ??0ScanResult@Signatures@Unreal@RC@@QEAA@$$QEAU0123@@Z
    ??0ScanResult@Signatures@Unreal@RC@@QEAA@AEBU0123@@Z
    ??0ScanResult@Signatures@Unreal@RC@@QEAA@XZ
    ??0ScanTargetArray@RC@@QEAA@XZ
    ??0SettingsManager@RC@@QEAA@$$QEAV01@@Z
    ??0SettingsManager@RC@@QEAA@AEBV01@@Z
    ??0SettingsManager@RC@@QEAA@XZ
    ??0SignatureContainerLight@RC@@QEAA@XZ
    ??0SignatureData@RC@@QEAA@$$QEAU01@@Z
    ??0SignatureData@RC@@QEAA@AEBU01@@Z
    ??0SignatureData@RC@@QEAA@XZ
    ??0Table@Lua@LuaMadeSimple@RC@@QEAA@AEBV123@@Z
    ??0Token@ParserBase@RC@@QEAA@HV?$basic_string_view@_WU?$char_traits@_W@std@@@std@@0W4HasData@012@@Z
    ??0TokenParser@ParserBase@RC@@QEAA@AEBVTokenizer@12@AEAV?$basic_string@_WU?$char_traits@_W@std@@V?$allocator@_W@2@@std@@@Z
    ??0UClassRegistrar@Internal@Unreal@RC@@IEAA@PEAPEAVUClass@23@PEB_W1@Z
    ??0UnrealScriptFunctionCallableContext@Unreal@RC@@QEAA@PEAVUObject@12@AEAUFFrame@12@PEAX@Z
    ??0UnrealScriptFunctionData@Unreal@RC@@QEAA@P6AXPEAVUObject@12@AEAUFFrame@12@PEAX@Z@Z
    ??0VersionStatus@Unreal@RC@@QEAA@$$QEAU012@@Z
    ??0VersionStatus@Unreal@RC@@QEAA@AEBU012@@Z
    ??0VersionStatus@Unreal@RC@@QEAA@W4StatusCode@012@V?$basic_string@_WU?$char_traits@_W@std@@V?$allocator@_W@2@@std@@@Z
    ??0VersionStatus@Unreal@RC@@QEAA@XZ
    ??1?$FileInterface@VWinFile@File@RC@@@File@RC@@UEAA@XZ
    ??1?$TStringBase@D@Unreal@RC@@QEAA@XZ
    ??1?$TStringBase@_Q@Unreal@RC@@QEAA@XZ
    ??1?$TStringBase@_W@Unreal@RC@@QEAA@XZ
    ??1CppUserModBase@RC@@UEAA@XZ
    ??1DebugConsoleDevice@Output@RC@@UEAA@XZ
    ??1FAnsiString@Unreal@RC@@QEAA@XZ
    ??1FAssetData427Plus@Unreal@RC@@QEAA@XZ
    ??1FAssetData51Plus@Unreal@RC@@QEAA@XZ
    ??1FAssetDataPre427@Unreal@RC@@QEAA@XZ
    ??1FCallbackMetadata@Internal@Hook@Unreal@RC@@UEAA@XZ
    ??1FCallbackOptions@Hook@Unreal@RC@@QEAA@XZ
    ??1FClassCreateListener@Unreal@RC@@UEAA@XZ
    ??1FClassDeleteListener@Unreal@RC@@UEAA@XZ
    ??1FFieldPath@Unreal@RC@@QEAA@XZ
    ??1FFrame_50_AndBelow@Unreal@RC@@UEAA@XZ
    ??1FFrame_51_AndAbove@Unreal@RC@@UEAA@XZ
    ??1FOutputDevice@Unreal@RC@@UEAA@XZ
    ??1FString@Unreal@RC@@QEAA@XZ
    ??1FStringOut@Unreal@RC@@QEAA@XZ
    ??1FTableRowBase@Unreal@RC@@UEAA@XZ
    ??1FUObjectCreateListener@Unreal@RC@@UEAA@XZ
    ??1FUObjectDeleteListener@Unreal@RC@@UEAA@XZ
    ??1FURL@Unreal@RC@@QEAA@XZ
    ??1FUtf8String@Unreal@RC@@QEAA@XZ
    ??1Handler@Input@RC@@QEAA@XZ
    ??1Lua@LuaMadeSimple@RC@@QEAA@XZ
    ??1Mod@RC@@UEAA@XZ
    ??1OutputDevice@Output@RC@@UEAA@XZ
    ??1ScanError@Signatures@Unreal@RC@@QEAA@XZ
    ??1ScanResult@Signatures@Unreal@RC@@QEAA@XZ
    ??1SettingsManager@RC@@QEAA@XZ
    ??1SignatureData@RC@@QEAA@XZ
    ??1TokenParser@ParserBase@RC@@UEAA@XZ
    ??1UnrealScriptFunctionData@Unreal@RC@@QEAA@XZ
    ??1VersionStatus@Unreal@RC@@QEAA@XZ
    ??2FUseSystemMallocForNew@Unreal@RC@@SAPEAX_K@Z
    ??3FUseSystemMallocForNew@Unreal@RC@@SAXPEAX@Z
    ??4?$FileInterface@VWinFile@File@RC@@@File@RC@@QEAAAEAV012@AEBV012@@Z
    ??4?$IsTInlineAllocatorHelper@V?$TSizedDefaultAllocator@$0CA@@Unreal@RC@@@Unreal@RC@@QEAAAEAU012@$$QEAU012@@Z
    ??4?$IsTInlineAllocatorHelper@V?$TSizedDefaultAllocator@$0CA@@Unreal@RC@@@Unreal@RC@@QEAAAEAU012@AEBU012@@Z
    ??4?$LuaTableData@$0?0@LuaMadeSimple@RC@@QEAAAEAU012@$$QEAU012@@Z
    ??4?$LuaTableData@$0?0@LuaMadeSimple@RC@@QEAAAEAU012@AEBU012@@Z
    ??4?$LuaTableData@$0?1@LuaMadeSimple@RC@@QEAAAEAU012@$$QEAU012@@Z
    ??4?$LuaTableData@$0?1@LuaMadeSimple@RC@@QEAAAEAU012@AEBU012@@Z
    ??4?$StaticReflectedFunctionBase@VUAssetRegistryHelpers@Unreal@RC@@@Unreal@RC@@QEAAAEAV012@$$QEAV012@@Z
    ??4?$StaticReflectedFunctionBase@VUAssetRegistryHelpers@Unreal@RC@@@Unreal@RC@@QEAAAEAV012@AEBV012@@Z
    ??4?$StaticReflectedFunctionBase@VUGameplayStatics@Unreal@RC@@@Unreal@RC@@QEAAAEAV012@$$QEAV012@@Z
    ??4?$StaticReflectedFunctionBase@VUGameplayStatics@Unreal@RC@@@Unreal@RC@@QEAAAEAV012@AEBV012@@Z
    ??4?$StaticReflectedFunctionBase@VUKismetSystemLibrary@Unreal@RC@@@Unreal@RC@@QEAAAEAV012@$$QEAV012@@Z
    ??4?$StaticReflectedFunctionBase@VUKismetSystemLibrary@Unreal@RC@@@Unreal@RC@@QEAAAEAV012@AEBV012@@Z
    ??4?$TFObjectPropertyBase@PEAVUObject@Unreal@RC@@@Unreal@RC@@QEAAAEAV012@$$QEAV012@@Z
    ??4?$TFObjectPropertyBase@PEAVUObject@Unreal@RC@@@Unreal@RC@@QEAAAEAV012@AEBV012@@Z
    ??4?$TFObjectPropertyBase@UFLazyObjectPtr@Unreal@RC@@@Unreal@RC@@QEAAAEAV012@$$QEAV012@@Z
    ??4?$TFObjectPropertyBase@UFLazyObjectPtr@Unreal@RC@@@Unreal@RC@@QEAAAEAV012@AEBV012@@Z
    ??4?$TFObjectPropertyBase@UFSoftObjectPtr@Unreal@RC@@@Unreal@RC@@QEAAAEAV012@$$QEAV012@@Z
    ??4?$TFObjectPropertyBase@UFSoftObjectPtr@Unreal@RC@@@Unreal@RC@@QEAAAEAV012@AEBV012@@Z
    ??4?$TFObjectPropertyBase@UFWeakObjectPtr@Unreal@RC@@@Unreal@RC@@QEAAAEAV012@$$QEAV012@@Z
    ??4?$TFObjectPropertyBase@UFWeakObjectPtr@Unreal@RC@@@Unreal@RC@@QEAAAEAV012@AEBV012@@Z
    ??4?$TProperty@CVFNumericProperty@Unreal@RC@@@Unreal@RC@@QEAAAEAV012@$$QEAV012@@Z
    ??4?$TProperty@CVFNumericProperty@Unreal@RC@@@Unreal@RC@@QEAAAEAV012@AEBV012@@Z
    ??4?$TProperty@EVFNumericProperty@Unreal@RC@@@Unreal@RC@@QEAAAEAV012@$$QEAV012@@Z
    ??4?$TProperty@EVFNumericProperty@Unreal@RC@@@Unreal@RC@@QEAAAEAV012@AEBV012@@Z
    ??4?$TProperty@FVFNumericProperty@Unreal@RC@@@Unreal@RC@@QEAAAEAV012@$$QEAV012@@Z
    ??4?$TProperty@FVFNumericProperty@Unreal@RC@@@Unreal@RC@@QEAAAEAV012@AEBV012@@Z
    ??4?$TProperty@GVFNumericProperty@Unreal@RC@@@Unreal@RC@@QEAAAEAV012@$$QEAV012@@Z
    ??4?$TProperty@GVFNumericProperty@Unreal@RC@@@Unreal@RC@@QEAAAEAV012@AEBV012@@Z
    ??4?$TProperty@HVFNumericProperty@Unreal@RC@@@Unreal@RC@@QEAAAEAV012@$$QEAV012@@Z
    ??4?$TProperty@HVFNumericProperty@Unreal@RC@@@Unreal@RC@@QEAAAEAV012@AEBV012@@Z
    ??4?$TProperty@IVFNumericProperty@Unreal@RC@@@Unreal@RC@@QEAAAEAV012@$$QEAV012@@Z
    ??4?$TProperty@IVFNumericProperty@Unreal@RC@@@Unreal@RC@@QEAAAEAV012@AEBV012@@Z
    ??4?$TProperty@MVFNumericProperty@Unreal@RC@@@Unreal@RC@@QEAAAEAV012@$$QEAV012@@Z
    ??4?$TProperty@MVFNumericProperty@Unreal@RC@@@Unreal@RC@@QEAAAEAV012@AEBV012@@Z
    ??4?$TProperty@NVFNumericProperty@Unreal@RC@@@Unreal@RC@@QEAAAEAV012@$$QEAV012@@Z
    ??4?$TProperty@NVFNumericProperty@Unreal@RC@@@Unreal@RC@@QEAAAEAV012@AEBV012@@Z
    ??4?$TProperty@PEAVUObject@Unreal@RC@@VFObjectPropertyBase@23@@Unreal@RC@@QEAAAEAV012@$$QEAV012@@Z
    ??4?$TProperty@PEAVUObject@Unreal@RC@@VFObjectPropertyBase@23@@Unreal@RC@@QEAAAEAV012@AEBV012@@Z
    ??4?$TProperty@UFFieldPath@Unreal@RC@@VFProperty@23@@Unreal@RC@@QEAAAEAV012@$$QEAV012@@Z
    ??4?$TProperty@UFFieldPath@Unreal@RC@@VFProperty@23@@Unreal@RC@@QEAAAEAV012@AEBV012@@Z
    ??4?$TProperty@UFLazyObjectPtr@Unreal@RC@@VFObjectPropertyBase@23@@Unreal@RC@@QEAAAEAV012@$$QEAV012@@Z
    ??4?$TProperty@UFLazyObjectPtr@Unreal@RC@@VFObjectPropertyBase@23@@Unreal@RC@@QEAAAEAV012@AEBV012@@Z
    ??4?$TProperty@UFSoftObjectPtr@Unreal@RC@@VFObjectPropertyBase@23@@Unreal@RC@@QEAAAEAV012@$$QEAV012@@Z
    ??4?$TProperty@UFSoftObjectPtr@Unreal@RC@@VFObjectPropertyBase@23@@Unreal@RC@@QEAAAEAV012@AEBV012@@Z
    ??4?$TProperty@UFSparseDelegate@Unreal@RC@@VFMulticastDelegateProperty@23@@Unreal@RC@@QEAAAEAV012@$$QEAV012@@Z
    ??4?$TProperty@UFSparseDelegate@Unreal@RC@@VFMulticastDelegateProperty@23@@Unreal@RC@@QEAAAEAV012@AEBV012@@Z
    ??4?$TProperty@UFWeakObjectPtr@Unreal@RC@@VFObjectPropertyBase@23@@Unreal@RC@@QEAAAEAV012@$$QEAV012@@Z
    ??4?$TProperty@UFWeakObjectPtr@Unreal@RC@@VFObjectPropertyBase@23@@Unreal@RC@@QEAAAEAV012@AEBV012@@Z
    ??4?$TProperty@V?$TMulticastScriptDelegate@UFWeakObjectPtr@Unreal@RC@@@Unreal@RC@@VFMulticastDelegateProperty@23@@Unreal@RC@@QEAAAEAV012@$$QEAV012@@Z
    ??4?$TProperty@V?$TMulticastScriptDelegate@UFWeakObjectPtr@Unreal@RC@@@Unreal@RC@@VFMulticastDelegateProperty@23@@Unreal@RC@@QEAAAEAV012@AEBV012@@Z
    ??4?$TProperty@V?$TScriptDelegate@UFWeakObjectPtr@Unreal@RC@@@Unreal@RC@@VFProperty@23@@Unreal@RC@@QEAAAEAV012@$$QEAV012@@Z
    ??4?$TProperty@V?$TScriptDelegate@UFWeakObjectPtr@Unreal@RC@@@Unreal@RC@@VFProperty@23@@Unreal@RC@@QEAAAEAV012@AEBV012@@Z
    ??4?$TProperty@VFAnsiString@Unreal@RC@@VFProperty@23@@Unreal@RC@@QEAAAEAV012@$$QEAV012@@Z
    ??4?$TProperty@VFAnsiString@Unreal@RC@@VFProperty@23@@Unreal@RC@@QEAAAEAV012@AEBV012@@Z
    ??4?$TProperty@VFName@Unreal@RC@@VFProperty@23@@Unreal@RC@@QEAAAEAV012@$$QEAV012@@Z
    ??4?$TProperty@VFName@Unreal@RC@@VFProperty@23@@Unreal@RC@@QEAAAEAV012@AEBV012@@Z
    ??4?$TProperty@VFScriptInterface@Unreal@RC@@VFProperty@23@@Unreal@RC@@QEAAAEAV012@$$QEAV012@@Z
    ??4?$TProperty@VFScriptInterface@Unreal@RC@@VFProperty@23@@Unreal@RC@@QEAAAEAV012@AEBV012@@Z
    ??4?$TProperty@VFScriptMap@Unreal@RC@@VFProperty@23@@Unreal@RC@@QEAAAEAV012@$$QEAV012@@Z
    ??4?$TProperty@VFScriptMap@Unreal@RC@@VFProperty@23@@Unreal@RC@@QEAAAEAV012@AEBV012@@Z
    ??4?$TProperty@VFScriptSet@Unreal@RC@@VFProperty@23@@Unreal@RC@@QEAAAEAV012@$$QEAV012@@Z
    ??4?$TProperty@VFScriptSet@Unreal@RC@@VFProperty@23@@Unreal@RC@@QEAAAEAV012@AEBV012@@Z
    ??4?$TProperty@VFString@Unreal@RC@@VFProperty@23@@Unreal@RC@@QEAAAEAV012@$$QEAV012@@Z
    ??4?$TProperty@VFString@Unreal@RC@@VFProperty@23@@Unreal@RC@@QEAAAEAV012@AEBV012@@Z
    ??4?$TProperty@VFText@Unreal@RC@@VFProperty@23@@Unreal@RC@@QEAAAEAV012@$$QEAV012@@Z
    ??4?$TProperty@VFText@Unreal@RC@@VFProperty@23@@Unreal@RC@@QEAAAEAV012@AEBV012@@Z
    ??4?$TProperty@VFUtf8String@Unreal@RC@@VFProperty@23@@Unreal@RC@@QEAAAEAV012@$$QEAV012@@Z
    ??4?$TProperty@VFUtf8String@Unreal@RC@@VFProperty@23@@Unreal@RC@@QEAAAEAV012@AEBV012@@Z
    ??4?$TProperty@_JVFNumericProperty@Unreal@RC@@@Unreal@RC@@QEAAAEAV012@$$QEAV012@@Z
    ??4?$TProperty@_JVFNumericProperty@Unreal@RC@@@Unreal@RC@@QEAAAEAV012@AEBV012@@Z
    ??4?$TProperty@_KVFNumericProperty@Unreal@RC@@@Unreal@RC@@QEAAAEAV012@$$QEAV012@@Z
    ??4?$TProperty@_KVFNumericProperty@Unreal@RC@@@Unreal@RC@@QEAAAEAV012@AEBV012@@Z
    ??4?$TPropertyTypeFundamentals@C@Unreal@RC@@QEAAAEAV012@$$QEAV012@@Z
    ??4?$TPropertyTypeFundamentals@C@Unreal@RC@@QEAAAEAV012@AEBV012@@Z
    ??4?$TPropertyTypeFundamentals@E@Unreal@RC@@QEAAAEAV012@$$QEAV012@@Z
    ??4?$TPropertyTypeFundamentals@E@Unreal@RC@@QEAAAEAV012@AEBV012@@Z
    ??4?$TPropertyTypeFundamentals@F@Unreal@RC@@QEAAAEAV012@$$QEAV012@@Z
    ??4?$TPropertyTypeFundamentals@F@Unreal@RC@@QEAAAEAV012@AEBV012@@Z
    ??4?$TPropertyTypeFundamentals@G@Unreal@RC@@QEAAAEAV012@$$QEAV012@@Z
    ??4?$TPropertyTypeFundamentals@G@Unreal@RC@@QEAAAEAV012@AEBV012@@Z
    ??4?$TPropertyTypeFundamentals@H@Unreal@RC@@QEAAAEAV012@$$QEAV012@@Z
    ??4?$TPropertyTypeFundamentals@H@Unreal@RC@@QEAAAEAV012@AEBV012@@Z
    ??4?$TPropertyTypeFundamentals@I@Unreal@RC@@QEAAAEAV012@$$QEAV012@@Z
    ??4?$TPropertyTypeFundamentals@I@Unreal@RC@@QEAAAEAV012@AEBV012@@Z
    ??4?$TPropertyTypeFundamentals@M@Unreal@RC@@QEAAAEAV012@$$QEAV012@@Z
    ??4?$TPropertyTypeFundamentals@M@Unreal@RC@@QEAAAEAV012@AEBV012@@Z
    ??4?$TPropertyTypeFundamentals@N@Unreal@RC@@QEAAAEAV012@$$QEAV012@@Z
    ??4?$TPropertyTypeFundamentals@N@Unreal@RC@@QEAAAEAV012@AEBV012@@Z
    ??4?$TPropertyTypeFundamentals@PEAVUObject@Unreal@RC@@@Unreal@RC@@QEAAAEAV012@$$QEAV012@@Z
    ??4?$TPropertyTypeFundamentals@PEAVUObject@Unreal@RC@@@Unreal@RC@@QEAAAEAV012@AEBV012@@Z
    ??4?$TPropertyTypeFundamentals@UFFieldPath@Unreal@RC@@@Unreal@RC@@QEAAAEAV012@$$QEAV012@@Z
    ??4?$TPropertyTypeFundamentals@UFFieldPath@Unreal@RC@@@Unreal@RC@@QEAAAEAV012@AEBV012@@Z
    ??4?$TPropertyTypeFundamentals@UFLazyObjectPtr@Unreal@RC@@@Unreal@RC@@QEAAAEAV012@$$QEAV012@@Z
    ??4?$TPropertyTypeFundamentals@UFLazyObjectPtr@Unreal@RC@@@Unreal@RC@@QEAAAEAV012@AEBV012@@Z
    ??4?$TPropertyTypeFundamentals@UFSoftObjectPtr@Unreal@RC@@@Unreal@RC@@QEAAAEAV012@$$QEAV012@@Z
    ??4?$TPropertyTypeFundamentals@UFSoftObjectPtr@Unreal@RC@@@Unreal@RC@@QEAAAEAV012@AEBV012@@Z
    ??4?$TPropertyTypeFundamentals@UFSparseDelegate@Unreal@RC@@@Unreal@RC@@QEAAAEAV012@$$QEAV012@@Z
    ??4?$TPropertyTypeFundamentals@UFSparseDelegate@Unreal@RC@@@Unreal@RC@@QEAAAEAV012@AEBV012@@Z
    ??4?$TPropertyTypeFundamentals@UFWeakObjectPtr@Unreal@RC@@@Unreal@RC@@QEAAAEAV012@$$QEAV012@@Z
    ??4?$TPropertyTypeFundamentals@UFWeakObjectPtr@Unreal@RC@@@Unreal@RC@@QEAAAEAV012@AEBV012@@Z
    ??4?$TPropertyTypeFundamentals@V?$TMulticastScriptDelegate@UFWeakObjectPtr@Unreal@RC@@@Unreal@RC@@@Unreal@RC@@QEAAAEAV012@$$QEAV012@@Z
    ??4?$TPropertyTypeFundamentals@V?$TMulticastScriptDelegate@UFWeakObjectPtr@Unreal@RC@@@Unreal@RC@@@Unreal@RC@@QEAAAEAV012@AEBV012@@Z
    ??4?$TPropertyTypeFundamentals@V?$TScriptDelegate@UFWeakObjectPtr@Unreal@RC@@@Unreal@RC@@@Unreal@RC@@QEAAAEAV012@$$QEAV012@@Z
    ??4?$TPropertyTypeFundamentals@V?$TScriptDelegate@UFWeakObjectPtr@Unreal@RC@@@Unreal@RC@@@Unreal@RC@@QEAAAEAV012@AEBV012@@Z
    ??4?$TPropertyTypeFundamentals@VFAnsiString@Unreal@RC@@@Unreal@RC@@QEAAAEAV012@$$QEAV012@@Z
    ??4?$TPropertyTypeFundamentals@VFAnsiString@Unreal@RC@@@Unreal@RC@@QEAAAEAV012@AEBV012@@Z
    ??4?$TPropertyTypeFundamentals@VFName@Unreal@RC@@@Unreal@RC@@QEAAAEAV012@$$QEAV012@@Z
    ??4?$TPropertyTypeFundamentals@VFName@Unreal@RC@@@Unreal@RC@@QEAAAEAV012@AEBV012@@Z
    ??4?$TPropertyTypeFundamentals@VFScriptInterface@Unreal@RC@@@Unreal@RC@@QEAAAEAV012@$$QEAV012@@Z
    ??4?$TPropertyTypeFundamentals@VFScriptInterface@Unreal@RC@@@Unreal@RC@@QEAAAEAV012@AEBV012@@Z
    ??4?$TPropertyTypeFundamentals@VFScriptMap@Unreal@RC@@@Unreal@RC@@QEAAAEAV012@$$QEAV012@@Z
    ??4?$TPropertyTypeFundamentals@VFScriptMap@Unreal@RC@@@Unreal@RC@@QEAAAEAV012@AEBV012@@Z
    ??4?$TPropertyTypeFundamentals@VFScriptSet@Unreal@RC@@@Unreal@RC@@QEAAAEAV012@$$QEAV012@@Z
    ??4?$TPropertyTypeFundamentals@VFScriptSet@Unreal@RC@@@Unreal@RC@@QEAAAEAV012@AEBV012@@Z
    ??4?$TPropertyTypeFundamentals@VFString@Unreal@RC@@@Unreal@RC@@QEAAAEAV012@$$QEAV012@@Z
    ??4?$TPropertyTypeFundamentals@VFString@Unreal@RC@@@Unreal@RC@@QEAAAEAV012@AEBV012@@Z
    ??4?$TPropertyTypeFundamentals@VFText@Unreal@RC@@@Unreal@RC@@QEAAAEAV012@$$QEAV012@@Z
    ??4?$TPropertyTypeFundamentals@VFText@Unreal@RC@@@Unreal@RC@@QEAAAEAV012@AEBV012@@Z
    ??4?$TPropertyTypeFundamentals@VFUtf8String@Unreal@RC@@@Unreal@RC@@QEAAAEAV012@$$QEAV012@@Z
    ??4?$TPropertyTypeFundamentals@VFUtf8String@Unreal@RC@@@Unreal@RC@@QEAAAEAV012@AEBV012@@Z
    ??4?$TPropertyTypeFundamentals@_J@Unreal@RC@@QEAAAEAV012@$$QEAV012@@Z
    ??4?$TPropertyTypeFundamentals@_J@Unreal@RC@@QEAAAEAV012@AEBV012@@Z
    ??4?$TPropertyTypeFundamentals@_K@Unreal@RC@@QEAAAEAV012@$$QEAV012@@Z
    ??4?$TPropertyTypeFundamentals@_K@Unreal@RC@@QEAAAEAV012@AEBV012@@Z
    ??4?$TProperty_Numeric@C@Unreal@RC@@QEAAAEAV012@$$QEAV012@@Z
    ??4?$TProperty_Numeric@C@Unreal@RC@@QEAAAEAV012@AEBV012@@Z
    ??4?$TProperty_Numeric@E@Unreal@RC@@QEAAAEAV012@$$QEAV012@@Z
    ??4?$TProperty_Numeric@E@Unreal@RC@@QEAAAEAV012@AEBV012@@Z
    ??4?$TProperty_Numeric@F@Unreal@RC@@QEAAAEAV012@$$QEAV012@@Z
    ??4?$TProperty_Numeric@F@Unreal@RC@@QEAAAEAV012@AEBV012@@Z
    ??4?$TProperty_Numeric@G@Unreal@RC@@QEAAAEAV012@$$QEAV012@@Z
    ??4?$TProperty_Numeric@G@Unreal@RC@@QEAAAEAV012@AEBV012@@Z
    ??4?$TProperty_Numeric@H@Unreal@RC@@QEAAAEAV012@$$QEAV012@@Z
    ??4?$TProperty_Numeric@H@Unreal@RC@@QEAAAEAV012@AEBV012@@Z
    ??4?$TProperty_Numeric@I@Unreal@RC@@QEAAAEAV012@$$QEAV012@@Z
    ??4?$TProperty_Numeric@I@Unreal@RC@@QEAAAEAV012@AEBV012@@Z
    ??4?$TProperty_Numeric@M@Unreal@RC@@QEAAAEAV012@$$QEAV012@@Z
    ??4?$TProperty_Numeric@M@Unreal@RC@@QEAAAEAV012@AEBV012@@Z
    ??4?$TProperty_Numeric@N@Unreal@RC@@QEAAAEAV012@$$QEAV012@@Z
    ??4?$TProperty_Numeric@N@Unreal@RC@@QEAAAEAV012@AEBV012@@Z
    ??4?$TProperty_Numeric@_J@Unreal@RC@@QEAAAEAV012@$$QEAV012@@Z
    ??4?$TProperty_Numeric@_J@Unreal@RC@@QEAAAEAV012@AEBV012@@Z
    ??4?$TProperty_Numeric@_K@Unreal@RC@@QEAAAEAV012@$$QEAV012@@Z
    ??4?$TProperty_Numeric@_K@Unreal@RC@@QEAAAEAV012@AEBV012@@Z
    ??4?$TProperty_WithEqualityAndSerializer@CVFNumericProperty@Unreal@RC@@@Unreal@RC@@QEAAAEAV012@$$QEAV012@@Z
    ??4?$TProperty_WithEqualityAndSerializer@CVFNumericProperty@Unreal@RC@@@Unreal@RC@@QEAAAEAV012@AEBV012@@Z
    ??4?$TProperty_WithEqualityAndSerializer@EVFNumericProperty@Unreal@RC@@@Unreal@RC@@QEAAAEAV012@$$QEAV012@@Z
    ??4?$TProperty_WithEqualityAndSerializer@EVFNumericProperty@Unreal@RC@@@Unreal@RC@@QEAAAEAV012@AEBV012@@Z
    ??4?$TProperty_WithEqualityAndSerializer@FVFNumericProperty@Unreal@RC@@@Unreal@RC@@QEAAAEAV012@$$QEAV012@@Z
    ??4?$TProperty_WithEqualityAndSerializer@FVFNumericProperty@Unreal@RC@@@Unreal@RC@@QEAAAEAV012@AEBV012@@Z
    ??4?$TProperty_WithEqualityAndSerializer@GVFNumericProperty@Unreal@RC@@@Unreal@RC@@QEAAAEAV012@$$QEAV012@@Z
    ??4?$TProperty_WithEqualityAndSerializer@GVFNumericProperty@Unreal@RC@@@Unreal@RC@@QEAAAEAV012@AEBV012@@Z
    ??4?$TProperty_WithEqualityAndSerializer@HVFNumericProperty@Unreal@RC@@@Unreal@RC@@QEAAAEAV012@$$QEAV012@@Z
    ??4?$TProperty_WithEqualityAndSerializer@HVFNumericProperty@Unreal@RC@@@Unreal@RC@@QEAAAEAV012@AEBV012@@Z
    ??4?$TProperty_WithEqualityAndSerializer@IVFNumericProperty@Unreal@RC@@@Unreal@RC@@QEAAAEAV012@$$QEAV012@@Z
    ??4?$TProperty_WithEqualityAndSerializer@IVFNumericProperty@Unreal@RC@@@Unreal@RC@@QEAAAEAV012@AEBV012@@Z
    ??4?$TProperty_WithEqualityAndSerializer@MVFNumericProperty@Unreal@RC@@@Unreal@RC@@QEAAAEAV012@$$QEAV012@@Z
    ??4?$TProperty_WithEqualityAndSerializer@MVFNumericProperty@Unreal@RC@@@Unreal@RC@@QEAAAEAV012@AEBV012@@Z
    ??4?$TProperty_WithEqualityAndSerializer@NVFNumericProperty@Unreal@RC@@@Unreal@RC@@QEAAAEAV012@$$QEAV012@@Z
    ??4?$TProperty_WithEqualityAndSerializer@NVFNumericProperty@Unreal@RC@@@Unreal@RC@@QEAAAEAV012@AEBV012@@Z
    ??4?$TProperty_WithEqualityAndSerializer@VFAnsiString@Unreal@RC@@VFProperty@23@@Unreal@RC@@QEAAAEAV012@$$QEAV012@@Z
    ??4?$TProperty_WithEqualityAndSerializer@VFAnsiString@Unreal@RC@@VFProperty@23@@Unreal@RC@@QEAAAEAV012@AEBV012@@Z
    ??4?$TProperty_WithEqualityAndSerializer@VFName@Unreal@RC@@VFProperty@23@@Unreal@RC@@QEAAAEAV012@$$QEAV012@@Z
    ??4?$TProperty_WithEqualityAndSerializer@VFName@Unreal@RC@@VFProperty@23@@Unreal@RC@@QEAAAEAV012@AEBV012@@Z
    ??4?$TProperty_WithEqualityAndSerializer@VFString@Unreal@RC@@VFProperty@23@@Unreal@RC@@QEAAAEAV012@$$QEAV012@@Z
    ??4?$TProperty_WithEqualityAndSerializer@VFString@Unreal@RC@@VFProperty@23@@Unreal@RC@@QEAAAEAV012@AEBV012@@Z
    ??4?$TProperty_WithEqualityAndSerializer@VFUtf8String@Unreal@RC@@VFProperty@23@@Unreal@RC@@QEAAAEAV012@$$QEAV012@@Z
    ??4?$TProperty_WithEqualityAndSerializer@VFUtf8String@Unreal@RC@@VFProperty@23@@Unreal@RC@@QEAAAEAV012@AEBV012@@Z
    ??4?$TProperty_WithEqualityAndSerializer@_JVFNumericProperty@Unreal@RC@@@Unreal@RC@@QEAAAEAV012@$$QEAV012@@Z
    ??4?$TProperty_WithEqualityAndSerializer@_JVFNumericProperty@Unreal@RC@@@Unreal@RC@@QEAAAEAV012@AEBV012@@Z
    ??4?$TProperty_WithEqualityAndSerializer@_KVFNumericProperty@Unreal@RC@@@Unreal@RC@@QEAAAEAV012@$$QEAV012@@Z
    ??4?$TProperty_WithEqualityAndSerializer@_KVFNumericProperty@Unreal@RC@@@Unreal@RC@@QEAAAEAV012@AEBV012@@Z
    ??4?$TStringBase@D@Unreal@RC@@QEAAAEAV012@$$QEAV012@@Z
    ??4?$TStringBase@D@Unreal@RC@@QEAAAEAV012@AEBV012@@Z
    ??4?$TStringBase@_Q@Unreal@RC@@QEAAAEAV012@$$QEAV012@@Z
    ??4?$TStringBase@_Q@Unreal@RC@@QEAAAEAV012@AEBV012@@Z
    ??4?$TStringBase@_W@Unreal@RC@@QEAAAEAV012@$$QEAV012@@Z
    ??4?$TStringBase@_W@Unreal@RC@@QEAAAEAV012@AEBV012@@Z
    ??4AActor@Unreal@RC@@QEAAAEAV012@$$QEAV012@@Z
    ??4AActor@Unreal@RC@@QEAAAEAV012@AEBV012@@Z
    ??4AGameMode@Unreal@RC@@QEAAAEAV012@$$QEAV012@@Z
    ??4AGameMode@Unreal@RC@@QEAAAEAV012@AEBV012@@Z
    ??4AGameModeBase@Unreal@RC@@QEAAAEAV012@$$QEAV012@@Z
    ??4AGameModeBase@Unreal@RC@@QEAAAEAV012@AEBV012@@Z
    ??4BaseObject@Type@LuaMadeSimple@RC@@QEAAAEAV0123@$$QEAV0123@@Z
    ??4BaseObject@Type@LuaMadeSimple@RC@@QEAAAEAV0123@AEBV0123@@Z
    ??4DebugConsoleDevice@Output@RC@@QEAAAEAV012@AEBV012@@Z
    ??4FAnsiStrProperty@Unreal@RC@@QEAAAEAV012@$$QEAV012@@Z
    ??4FAnsiStrProperty@Unreal@RC@@QEAAAEAV012@AEBV012@@Z
    ??4FAnsiString@Unreal@RC@@QEAAAEAV012@AEBV012@@Z
    ??4FArrayProperty@Unreal@RC@@QEAAAEAV012@$$QEAV012@@Z
    ??4FArrayProperty@Unreal@RC@@QEAAAEAV012@AEBV012@@Z
    ??4FAssetClassProperty@Unreal@RC@@QEAAAEAV012@$$QEAV012@@Z
    ??4FAssetClassProperty@Unreal@RC@@QEAAAEAV012@AEBV012@@Z
    ??4FAssetData427Plus@Unreal@RC@@QEAAAEAU012@$$QEAU012@@Z
    ??4FAssetData427Plus@Unreal@RC@@QEAAAEAU012@AEBU012@@Z
    ??4FAssetData51Plus@Unreal@RC@@QEAAAEAU012@$$QEAU012@@Z
    ??4FAssetData51Plus@Unreal@RC@@QEAAAEAU012@AEBU012@@Z
    ??4FAssetData@Unreal@RC@@QEAAAEAU012@AEBU012@@Z
    ??4FAssetDataPre427@Unreal@RC@@QEAAAEAU012@$$QEAU012@@Z
    ??4FAssetDataPre427@Unreal@RC@@QEAAAEAU012@AEBU012@@Z
    ??4FAssetObjectProperty@Unreal@RC@@QEAAAEAV012@$$QEAV012@@Z
    ??4FAssetObjectProperty@Unreal@RC@@QEAAAEAV012@AEBV012@@Z
    ??4FBoolProperty@Unreal@RC@@QEAAAEAV012@$$QEAV012@@Z
    ??4FBoolProperty@Unreal@RC@@QEAAAEAV012@AEBV012@@Z
    ??4FByteProperty@Unreal@RC@@QEAAAEAV012@$$QEAV012@@Z
    ??4FByteProperty@Unreal@RC@@QEAAAEAV012@AEBV012@@Z
    ??4FCallbackIterationDataCommonImpl@Internal@Hook@Unreal@RC@@QEAAAEAV01234@$$QEAV01234@@Z
    ??4FCallbackIterationDataCommonImpl@Internal@Hook@Unreal@RC@@QEAAAEAV01234@AEBV01234@@Z
    ??4FCallbackOptions@Hook@Unreal@RC@@QEAAAEAU0123@$$QEAU0123@@Z
    ??4FCallbackOptions@Hook@Unreal@RC@@QEAAAEAU0123@AEBU0123@@Z
    ??4FClassCreateListener@Unreal@RC@@QEAAAEAU012@$$QEAU012@@Z
    ??4FClassCreateListener@Unreal@RC@@QEAAAEAU012@AEBU012@@Z
    ??4FClassDeleteListener@Unreal@RC@@QEAAAEAU012@$$QEAU012@@Z
    ??4FClassDeleteListener@Unreal@RC@@QEAAAEAU012@AEBU012@@Z
    ??4FClassProperty@Unreal@RC@@QEAAAEAV012@$$QEAV012@@Z
    ??4FClassProperty@Unreal@RC@@QEAAAEAV012@AEBV012@@Z
    ??4FClassPtrProperty@Unreal@RC@@QEAAAEAV012@$$QEAV012@@Z
    ??4FClassPtrProperty@Unreal@RC@@QEAAAEAV012@AEBV012@@Z
    ??4FCustomPropertyListNode@Unreal@RC@@QEAAAEAU012@$$QEAU012@@Z
    ??4FCustomPropertyListNode@Unreal@RC@@QEAAAEAU012@AEBU012@@Z
    ??4FDelegateProperty@Unreal@RC@@QEAAAEAV012@$$QEAV012@@Z
    ??4FDelegateProperty@Unreal@RC@@QEAAAEAV012@AEBV012@@Z
    ??4FDoubleProperty@Unreal@RC@@QEAAAEAV012@$$QEAV012@@Z
    ??4FDoubleProperty@Unreal@RC@@QEAAAEAV012@AEBV012@@Z
    ??4FEnumProperty@Unreal@RC@@QEAAAEAV012@$$QEAV012@@Z
    ??4FEnumProperty@Unreal@RC@@QEAAAEAV012@AEBV012@@Z
    ??4FField@Unreal@RC@@QEAAAEAV012@$$QEAV012@@Z
    ??4FField@Unreal@RC@@QEAAAEAV012@AEBV012@@Z
    ??4FFieldClass@Unreal@RC@@QEAAAEAV012@$$QEAV012@@Z
    ??4FFieldClass@Unreal@RC@@QEAAAEAV012@AEBV012@@Z
    ??4FFieldClassRegistrar@Internal@Unreal@RC@@QEAAAEAV0123@$$QEAV0123@@Z
    ??4FFieldClassRegistrar@Internal@Unreal@RC@@QEAAAEAV0123@AEBV0123@@Z
    ??4FFieldClassVariant@Unreal@RC@@QEAAAEAV012@$$QEAV012@@Z
    ??4FFieldClassVariant@Unreal@RC@@QEAAAEAV012@AEBV012@@Z
    ??4FFieldPath@Unreal@RC@@QEAAAEAU012@$$QEAU012@@Z
    ??4FFieldPath@Unreal@RC@@QEAAAEAU012@AEBU012@@Z
    ??4FFieldPathProperty@Unreal@RC@@QEAAAEAV012@$$QEAV012@@Z
    ??4FFieldPathProperty@Unreal@RC@@QEAAAEAV012@AEBV012@@Z
    ??4FFieldVariant@Unreal@RC@@QEAAAEAV012@$$QEAV012@@Z
    ??4FFieldVariant@Unreal@RC@@QEAAAEAV012@AEBV012@@Z
    ??4FFloatProperty@Unreal@RC@@QEAAAEAV012@$$QEAV012@@Z
    ??4FFloatProperty@Unreal@RC@@QEAAAEAV012@AEBV012@@Z
    ??4FFrame@Unreal@RC@@QEAAAEAU012@$$QEAU012@@Z
    ??4FFrame@Unreal@RC@@QEAAAEAU012@AEBU012@@Z
    ??4FFrame_50_AndBelow@Unreal@RC@@QEAAAEAU012@$$QEAU012@@Z
    ??4FFrame_50_AndBelow@Unreal@RC@@QEAAAEAU012@AEBU012@@Z
    ??4FFrame_51_AndAbove@Unreal@RC@@QEAAAEAU012@$$QEAU012@@Z
    ??4FFrame_51_AndAbove@Unreal@RC@@QEAAAEAU012@AEBU012@@Z
    ??4FGlobalCallbackIdDecoder@Hook@Unreal@RC@@QEAAAEAV0123@AEBV0123@@Z
    ??4FGuid@Unreal@RC@@QEAAAEAU012@$$QEAU012@@Z
    ??4FGuid@Unreal@RC@@QEAAAEAU012@AEBU012@@Z
    ??4FImplementedInterface@Unreal@RC@@QEAAAEAU012@$$QEAU012@@Z
    ??4FImplementedInterface@Unreal@RC@@QEAAAEAU012@AEBU012@@Z
    ??4FInt16Property@Unreal@RC@@QEAAAEAV012@$$QEAV012@@Z
    ??4FInt16Property@Unreal@RC@@QEAAAEAV012@AEBV012@@Z
    ??4FInt64Property@Unreal@RC@@QEAAAEAV012@$$QEAV012@@Z
    ??4FInt64Property@Unreal@RC@@QEAAAEAV012@AEBV012@@Z
    ??4FInt8Property@Unreal@RC@@QEAAAEAV012@$$QEAV012@@Z
    ??4FInt8Property@Unreal@RC@@QEAAAEAV012@AEBV012@@Z
    ??4FIntProperty@Unreal@RC@@QEAAAEAV012@$$QEAV012@@Z
    ??4FIntProperty@Unreal@RC@@QEAAAEAV012@AEBV012@@Z
    ??4FInterfaceProperty@Unreal@RC@@QEAAAEAV012@$$QEAV012@@Z
    ??4FInterfaceProperty@Unreal@RC@@QEAAAEAV012@AEBV012@@Z
    ??4FLazyObjectProperty@Unreal@RC@@QEAAAEAV012@$$QEAV012@@Z
    ??4FLazyObjectProperty@Unreal@RC@@QEAAAEAV012@AEBV012@@Z
    ??4FMalloc@Unreal@RC@@QEAAAEAV012@$$QEAV012@@Z
    ??4FMalloc@Unreal@RC@@QEAAAEAV012@AEBV012@@Z
    ??4FMapProperty@Unreal@RC@@QEAAAEAV012@$$QEAV012@@Z
    ??4FMapProperty@Unreal@RC@@QEAAAEAV012@AEBV012@@Z
    ??4FMulticastDelegateProperty@Unreal@RC@@QEAAAEAV012@$$QEAV012@@Z
    ??4FMulticastDelegateProperty@Unreal@RC@@QEAAAEAV012@AEBV012@@Z
    ??4FMulticastInlineDelegateProperty@Unreal@RC@@QEAAAEAV012@$$QEAV012@@Z
    ??4FMulticastInlineDelegateProperty@Unreal@RC@@QEAAAEAV012@AEBV012@@Z
    ??4FMulticastSparseDelegateProperty@Unreal@RC@@QEAAAEAV012@$$QEAV012@@Z
    ??4FMulticastSparseDelegateProperty@Unreal@RC@@QEAAAEAV012@AEBV012@@Z
    ??4FName@Unreal@RC@@QEAAAEAV012@$$QEAV012@@Z
    ??4FName@Unreal@RC@@QEAAAEAV012@AEBV012@@Z
    ??4FNameData@UEnum@Unreal@RC@@QEAAAEAU0123@$$QEAU0123@@Z
    ??4FNameData@UEnum@Unreal@RC@@QEAAAEAU0123@AEBU0123@@Z
    ??4FNameProperty@Unreal@RC@@QEAAAEAV012@$$QEAV012@@Z
    ??4FNameProperty@Unreal@RC@@QEAAAEAV012@AEBV012@@Z
    ??4FNativeFunctionLookup@Unreal@RC@@QEAAAEAU012@$$QEAU012@@Z
    ??4FNativeFunctionLookup@Unreal@RC@@QEAAAEAU012@AEBU012@@Z
    ??4FNumericProperty@Unreal@RC@@QEAAAEAV012@$$QEAV012@@Z
    ??4FNumericProperty@Unreal@RC@@QEAAAEAV012@AEBV012@@Z
    ??4FObjectProperty@Unreal@RC@@QEAAAEAV012@$$QEAV012@@Z
    ??4FObjectProperty@Unreal@RC@@QEAAAEAV012@AEBV012@@Z
    ??4FObjectPropertyBase@Unreal@RC@@QEAAAEAV012@$$QEAV012@@Z
    ??4FObjectPropertyBase@Unreal@RC@@QEAAAEAV012@AEBV012@@Z
    ??4FObjectPtrProperty@Unreal@RC@@QEAAAEAV012@$$QEAV012@@Z
    ??4FObjectPtrProperty@Unreal@RC@@QEAAAEAV012@AEBV012@@Z
    ??4FOptionalProperty@Unreal@RC@@QEAAAEAV012@$$QEAV012@@Z
    ??4FOptionalProperty@Unreal@RC@@QEAAAEAV012@AEBV012@@Z
    ??4FOptionalPropertyLayout@Unreal@RC@@QEAAAEAU012@$$QEAU012@@Z
    ??4FOptionalPropertyLayout@Unreal@RC@@QEAAAEAU012@AEBU012@@Z
    ??4FOutParmRec@Unreal@RC@@QEAAAEAU012@$$QEAU012@@Z
    ??4FOutParmRec@Unreal@RC@@QEAAAEAU012@AEBU012@@Z
    ??4FOutputDevice@Unreal@RC@@QEAAAEAV012@AEBV012@@Z
    ??4FProperty@Unreal@RC@@QEAAAEAV012@$$QEAV012@@Z
    ??4FProperty@Unreal@RC@@QEAAAEAV012@AEBV012@@Z
    ??4FQuat@Unreal@RC@@QEAAAEAU012@$$QEAU012@@Z
    ??4FQuat@Unreal@RC@@QEAAAEAU012@AEBU012@@Z
    ??4FRotator@Unreal@RC@@QEAAAEAU012@$$QEAU012@@Z
    ??4FRotator@Unreal@RC@@QEAAAEAU012@AEBU012@@Z
    ??4FSetProperty@Unreal@RC@@QEAAAEAV012@$$QEAV012@@Z
    ??4FSetProperty@Unreal@RC@@QEAAAEAV012@AEBV012@@Z
    ??4FSoftClassProperty@Unreal@RC@@QEAAAEAV012@$$QEAV012@@Z
    ??4FSoftClassProperty@Unreal@RC@@QEAAAEAV012@AEBV012@@Z
    ??4FSoftObjectProperty@Unreal@RC@@QEAAAEAV012@$$QEAV012@@Z
    ??4FSoftObjectProperty@Unreal@RC@@QEAAAEAV012@AEBV012@@Z
    ??4FSparseDelegate@Unreal@RC@@QEAAAEAU012@$$QEAU012@@Z
    ??4FSparseDelegate@Unreal@RC@@QEAAAEAU012@AEBU012@@Z
    ??4FStaticConstructObjectParameters@Unreal@RC@@QEAAAEAU012@$$QEAU012@@Z
    ??4FStaticConstructObjectParameters@Unreal@RC@@QEAAAEAU012@AEBU012@@Z
    ??4FStrProperty@Unreal@RC@@QEAAAEAV012@$$QEAV012@@Z
    ??4FStrProperty@Unreal@RC@@QEAAAEAV012@AEBV012@@Z
    ??4FString@Unreal@RC@@QEAAAEAV012@AEBV012@@Z
    ??4FStructProperty@Unreal@RC@@QEAAAEAV012@$$QEAV012@@Z
    ??4FStructProperty@Unreal@RC@@QEAAAEAV012@AEBV012@@Z
    ??4FTableRowBase@Unreal@RC@@QEAAAEAU012@AEBU012@@Z
    ??4FText@Unreal@RC@@QEAAAEAV012@AEBV012@@Z
    ??4FTextProperty@Unreal@RC@@QEAAAEAV012@$$QEAV012@@Z
    ??4FTextProperty@Unreal@RC@@QEAAAEAV012@AEBV012@@Z
    ??4FTransform@Unreal@RC@@QEAAAEAU012@$$QEAU012@@Z
    ??4FTransform@Unreal@RC@@QEAAAEAU012@AEBU012@@Z
    ??4FUInt16Property@Unreal@RC@@QEAAAEAV012@$$QEAV012@@Z
    ??4FUInt16Property@Unreal@RC@@QEAAAEAV012@AEBV012@@Z
    ??4FUInt32Property@Unreal@RC@@QEAAAEAV012@$$QEAV012@@Z
    ??4FUInt32Property@Unreal@RC@@QEAAAEAV012@AEBV012@@Z
    ??4FUInt64Property@Unreal@RC@@QEAAAEAV012@$$QEAV012@@Z
    ??4FUInt64Property@Unreal@RC@@QEAAAEAV012@AEBV012@@Z
    ??4FUObjectArray@Unreal@RC@@QEAAAEAV012@$$QEAV012@@Z
    ??4FUObjectArray@Unreal@RC@@QEAAAEAV012@AEBV012@@Z
    ??4FUObjectCreateListener@Unreal@RC@@QEAAAEAV012@AEBV012@@Z
    ??4FUObjectDeleteListener@Unreal@RC@@QEAAAEAV012@AEBV012@@Z
    ??4FUObjectItem@Unreal@RC@@QEAAAEAU012@$$QEAU012@@Z
    ??4FUObjectItem@Unreal@RC@@QEAAAEAU012@AEBU012@@Z
    ??4FURL@Unreal@RC@@QEAAAEAU012@$$QEAU012@@Z
    ??4FURL@Unreal@RC@@QEAAAEAU012@AEBU012@@Z
    ??4FUtf8StrProperty@Unreal@RC@@QEAAAEAV012@$$QEAV012@@Z
    ??4FUtf8StrProperty@Unreal@RC@@QEAAAEAV012@AEBV012@@Z
    ??4FUtf8String@Unreal@RC@@QEAAAEAV012@AEBV012@@Z
    ??4FWeakObjectProperty@Unreal@RC@@QEAAAEAV012@$$QEAV012@@Z
    ??4FWeakObjectProperty@Unreal@RC@@QEAAAEAV012@AEBV012@@Z
    ??4FWeakObjectPtr@Unreal@RC@@QEAAAEAU012@$$QEAU012@@Z
    ??4FWeakObjectPtr@Unreal@RC@@QEAAAEAU012@AEBU012@@Z
    ??4FWeakObjectPtr@Unreal@RC@@QEAAXPEAVUObject@12@@Z
    ??4FWorldContext@Unreal@RC@@QEAAAEAU012@$$QEAU012@@Z
    ??4FWorldContext@Unreal@RC@@QEAAAEAU012@AEBU012@@Z
    ??4GenericItemData@File@RC@@QEAAAEAU012@$$QEAU012@@Z
    ??4GenericItemData@File@RC@@QEAAAEAU012@AEBU012@@Z
    ??4ICppStructOps@UScriptStruct@Unreal@RC@@QEAAAEAU0123@$$QEAU0123@@Z
    ??4ICppStructOps@UScriptStruct@Unreal@RC@@QEAAAEAU0123@AEBU0123@@Z
    ??4ITextData@Unreal@RC@@QEAAAEAV012@$$QEAV012@@Z
    ??4ITextData@Unreal@RC@@QEAAAEAV012@AEBV012@@Z
    ??4InstancedReflectedFunction@Unreal@RC@@QEAAAEAV012@$$QEAV012@@Z
    ??4InstancedReflectedFunction@Unreal@RC@@QEAAAEAV012@AEBV012@@Z
    ??4LuaTableReference@LuaMadeSimple@RC@@QEAAAEAU012@$$QEAU012@@Z
    ??4LuaTableReference@LuaMadeSimple@RC@@QEAAAEAU012@AEBU012@@Z
    ??4MetaMethodContainer@Type@LuaMadeSimple@RC@@QEAAAEAU0123@$$QEAU0123@@Z
    ??4MetaMethodContainer@Type@LuaMadeSimple@RC@@QEAAAEAU0123@AEBU0123@@Z
    ??4OpenProperties@File@RC@@QEAAAEAU012@$$QEAU012@@Z
    ??4OpenProperties@File@RC@@QEAAAEAU012@AEBU012@@Z
    ??4OutputDevice@Output@RC@@QEAAAEAV012@AEBV012@@Z
    ??4ReflectedFunctionBase@Unreal@RC@@QEAAAEAV012@$$QEAV012@@Z
    ??4ReflectedFunctionBase@Unreal@RC@@QEAAAEAV012@AEBV012@@Z
    ??4ScanError@Signatures@Unreal@RC@@QEAAAEAU0123@$$QEAU0123@@Z
    ??4ScanError@Signatures@Unreal@RC@@QEAAAEAU0123@AEBU0123@@Z
    ??4ScanResult@Signatures@Unreal@RC@@QEAAAEAU0123@$$QEAU0123@@Z
    ??4ScanResult@Signatures@Unreal@RC@@QEAAAEAU0123@AEBU0123@@Z
    ??4ScanTargetArray@RC@@QEAAAEAV01@$$QEAV01@@Z
    ??4ScanTargetArray@RC@@QEAAAEAV01@AEBV01@@Z
    ??4SettingsManager@RC@@QEAAAEAV01@$$QEAV01@@Z
    ??4SettingsManager@RC@@QEAAAEAV01@AEBV01@@Z
    ??4SigScannerStaticData@RC@@QEAAAEAV01@$$QEAV01@@Z
    ??4SigScannerStaticData@RC@@QEAAAEAV01@AEBV01@@Z
    ??4SignatureContainerLight@RC@@QEAAAEAU01@$$QEAU01@@Z
    ??4SignatureContainerLight@RC@@QEAAAEAU01@AEBU01@@Z
    ??4SignatureData@RC@@QEAAAEAU01@$$QEAU01@@Z
    ??4SignatureData@RC@@QEAAAEAU01@AEBU01@@Z
    ??4StaticStorage@Hook@Unreal@RC@@QEAAAEAU0123@$$QEAU0123@@Z
    ??4StaticStorage@Hook@Unreal@RC@@QEAAAEAU0123@AEBU0123@@Z
    ??4TUObjectArray@Unreal@RC@@QEAAAEAV012@$$QEAV012@@Z
    ??4TUObjectArray@Unreal@RC@@QEAAAEAV012@AEBV012@@Z
    ??4TypeChecker@Unreal@RC@@QEAAAEAV012@$$QEAV012@@Z
    ??4TypeChecker@Unreal@RC@@QEAAAEAV012@AEBV012@@Z
    ??4UActorComponent@Unreal@RC@@QEAAAEAV012@$$QEAV012@@Z
    ??4UActorComponent@Unreal@RC@@QEAAAEAV012@AEBV012@@Z
    ??4UAnimBlueprintGeneratedClass@Unreal@RC@@QEAAAEAV012@$$QEAV012@@Z
    ??4UAnimBlueprintGeneratedClass@Unreal@RC@@QEAAAEAV012@AEBV012@@Z
    ??4UAssetRegistry@Unreal@RC@@QEAAAEAV012@$$QEAV012@@Z
    ??4UAssetRegistry@Unreal@RC@@QEAAAEAV012@AEBV012@@Z
    ??4UAssetRegistryHelpers@Unreal@RC@@QEAAAEAV012@$$QEAV012@@Z
    ??4UAssetRegistryHelpers@Unreal@RC@@QEAAAEAV012@AEBV012@@Z
    ??4UBlueprintGeneratedClass@Unreal@RC@@QEAAAEAV012@$$QEAV012@@Z
    ??4UBlueprintGeneratedClass@Unreal@RC@@QEAAAEAV012@AEBV012@@Z
    ??4UCanvasPanel@Unreal@RC@@QEAAAEAV012@$$QEAV012@@Z
    ??4UCanvasPanel@Unreal@RC@@QEAAAEAV012@AEBV012@@Z
    ??4UClass@Unreal@RC@@QEAAAEAV012@$$QEAV012@@Z
    ??4UClass@Unreal@RC@@QEAAAEAV012@AEBV012@@Z
    ??4UClassRegistrar@Internal@Unreal@RC@@QEAAAEAV0123@$$QEAV0123@@Z
    ??4UClassRegistrar@Internal@Unreal@RC@@QEAAAEAV0123@AEBV0123@@Z
    ??4UDataTable@Unreal@RC@@QEAAAEAV012@$$QEAV012@@Z
    ??4UDataTable@Unreal@RC@@QEAAAEAV012@AEBV012@@Z
    ??4UDelegateFunction@Unreal@RC@@QEAAAEAV012@$$QEAV012@@Z
    ??4UDelegateFunction@Unreal@RC@@QEAAAEAV012@AEBV012@@Z
    ??4UE4SSBaseObjectName@LuaType@RC@@QEAAAEAU012@$$QEAU012@@Z
    ??4UE4SSBaseObjectName@LuaType@RC@@QEAAAEAU012@AEBU012@@Z
    ??4UE4SSRuntime@RC@@QEAAAEAU01@$$QEAU01@@Z
    ??4UE4SSRuntime@RC@@QEAAAEAU01@AEBU01@@Z
    ??4UEngine@Unreal@RC@@QEAAAEAV012@$$QEAV012@@Z
    ??4UEngine@Unreal@RC@@QEAAAEAV012@AEBV012@@Z
    ??4UEnum@Unreal@RC@@QEAAAEAV012@$$QEAV012@@Z
    ??4UEnum@Unreal@RC@@QEAAAEAV012@AEBV012@@Z
    ??4UField@Unreal@RC@@QEAAAEAV012@$$QEAV012@@Z
    ??4UField@Unreal@RC@@QEAAAEAV012@AEBV012@@Z
    ??4UFunction@Unreal@RC@@QEAAAEAV012@$$QEAV012@@Z
    ??4UFunction@Unreal@RC@@QEAAAEAV012@AEBV012@@Z
    ??4UGameViewportClient@Unreal@RC@@QEAAAEAV012@$$QEAV012@@Z
    ??4UGameViewportClient@Unreal@RC@@QEAAAEAV012@AEBV012@@Z
    ??4UGameplayStatics@Unreal@RC@@QEAAAEAV012@$$QEAV012@@Z
    ??4UGameplayStatics@Unreal@RC@@QEAAAEAV012@AEBV012@@Z
    ??4UInterface@Unreal@RC@@QEAAAEAV012@$$QEAV012@@Z
    ??4UInterface@Unreal@RC@@QEAAAEAV012@AEBV012@@Z
    ??4UKismetNodeHelperLibrary@Unreal@RC@@QEAAAEAV012@$$QEAV012@@Z
    ??4UKismetNodeHelperLibrary@Unreal@RC@@QEAAAEAV012@AEBV012@@Z
    ??4UKismetSystemLibrary@Unreal@RC@@QEAAAEAV012@$$QEAV012@@Z
    ??4UKismetSystemLibrary@Unreal@RC@@QEAAAEAV012@AEBV012@@Z
    ??4UKismetTextLibrary@Unreal@RC@@QEAAAEAV012@$$QEAV012@@Z
    ??4UKismetTextLibrary@Unreal@RC@@QEAAAEAV012@AEBV012@@Z
    ??4ULocalPlayer@Unreal@RC@@QEAAAEAV012@$$QEAV012@@Z
    ??4ULocalPlayer@Unreal@RC@@QEAAAEAV012@AEBV012@@Z
    ??4UObject@Unreal@RC@@QEAAAEAV012@$$QEAV012@@Z
    ??4UObject@Unreal@RC@@QEAAAEAV012@AEBV012@@Z
    ??4UObjectBase@Unreal@RC@@QEAAAEAV012@$$QEAV012@@Z
    ??4UObjectBase@Unreal@RC@@QEAAAEAV012@AEBV012@@Z
    ??4UObjectBaseUtility@Unreal@RC@@QEAAAEAV012@$$QEAV012@@Z
    ??4UObjectBaseUtility@Unreal@RC@@QEAAAEAV012@AEBV012@@Z
    ??4UObjectName@LuaType@RC@@QEAAAEAU012@$$QEAU012@@Z
    ??4UObjectName@LuaType@RC@@QEAAAEAU012@AEBU012@@Z
    ??4UPackage@Unreal@RC@@QEAAAEAV012@$$QEAV012@@Z
    ??4UPackage@Unreal@RC@@QEAAAEAV012@AEBV012@@Z
    ??4UPlayer@Unreal@RC@@QEAAAEAV012@$$QEAV012@@Z
    ??4UPlayer@Unreal@RC@@QEAAAEAV012@AEBV012@@Z
    ??4USceneComponent@Unreal@RC@@QEAAAEAV012@$$QEAV012@@Z
    ??4USceneComponent@Unreal@RC@@QEAAAEAV012@AEBV012@@Z
    ??4UScriptStruct@Unreal@RC@@QEAAAEAV012@$$QEAV012@@Z
    ??4UScriptStruct@Unreal@RC@@QEAAAEAV012@AEBV012@@Z
    ??4USparseDelegateFunction@Unreal@RC@@QEAAAEAV012@$$QEAV012@@Z
    ??4USparseDelegateFunction@Unreal@RC@@QEAAAEAV012@AEBV012@@Z
    ??4UStruct@Unreal@RC@@QEAAAEAV012@$$QEAV012@@Z
    ??4UStruct@Unreal@RC@@QEAAAEAV012@AEBV012@@Z
    ??4UUserDefinedEnum@Unreal@RC@@QEAAAEAV012@$$QEAV012@@Z
    ??4UUserDefinedEnum@Unreal@RC@@QEAAAEAV012@AEBV012@@Z
    ??4UWidgetBlueprintGeneratedClass@Unreal@RC@@QEAAAEAV012@$$QEAV012@@Z
    ??4UWidgetBlueprintGeneratedClass@Unreal@RC@@QEAAAEAV012@AEBV012@@Z
    ??4UWorld@Unreal@RC@@QEAAAEAV012@$$QEAV012@@Z
    ??4UWorld@Unreal@RC@@QEAAAEAV012@AEBV012@@Z
    ??4Version@Unreal@RC@@QEAAAEAV012@$$QEAV012@@Z
    ??4Version@Unreal@RC@@QEAAAEAV012@AEBV012@@Z
    ??4VersionStatus@Unreal@RC@@QEAAAEAU012@$$QEAU012@@Z
    ??4VersionStatus@Unreal@RC@@QEAAAEAU012@AEBU012@@Z
    ??4WIN_MODULEINFO@RC@@QEAAAEAU01@U_MODULEINFO@@@Z
    ??7FName@Unreal@RC@@QEBA_NXZ
    ??8?$TStringBase@D@Unreal@RC@@QEBA_NAEBV012@@Z
    ??8?$TStringBase@D@Unreal@RC@@QEBA_NPEBD@Z
    ??8?$TStringBase@_Q@Unreal@RC@@QEBA_NAEBV012@@Z
    ??8?$TStringBase@_Q@Unreal@RC@@QEBA_NPEB_Q@Z
    ??8?$TStringBase@_W@Unreal@RC@@QEBA_NAEBV012@@Z
    ??8?$TStringBase@_W@Unreal@RC@@QEBA_NPEB_W@Z
    ??8FFieldClassVariant@Unreal@RC@@QEBA_NAEBV012@@Z
    ??8FName@Unreal@RC@@QEAA_NPEB_W@Z
    ??8FName@Unreal@RC@@QEBA_NV012@@Z
    ??8FText@Unreal@RC@@QEBA_NAEBVFString@12@@Z
    ??8FText@Unreal@RC@@QEBA_NPEB_W@Z
    ??9FName@Unreal@RC@@QEBA_NV012@@Z
    ??A?$TStringBase@D@Unreal@RC@@QEAAAEADH@Z
    ??A?$TStringBase@D@Unreal@RC@@QEBAAEBDH@Z
    ??A?$TStringBase@_Q@Unreal@RC@@QEAAAEA_QH@Z
    ??A?$TStringBase@_Q@Unreal@RC@@QEBAAEB_QH@Z
    ??A?$TStringBase@_W@Unreal@RC@@QEAAAEA_WH@Z
    ??A?$TStringBase@_W@Unreal@RC@@QEBAAEB_WH@Z
    ??AFGuid@Unreal@RC@@QEAAAEAIH@Z
    ??AFGuid@Unreal@RC@@QEBAAEBIH@Z
    ??AFNameData@UEnum@Unreal@RC@@QEBA?AU?$TTuple@VFName@Unreal@RC@@_J@23@H@Z
    ??AScanTargetArray@RC@@QEAAAEAU_MODULEINFO@@W4ScanTarget@1@@Z
    ??ATUObjectArray@Unreal@RC@@QEAAAEAUFUObjectItem@12@H@Z
    ??ATUObjectArray@Unreal@RC@@QEBAAEBUFUObjectItem@12@H@Z
    ??D?$TStringBase@D@Unreal@RC@@QEBAPEBDXZ
    ??D?$TStringBase@_Q@Unreal@RC@@QEBAPEB_QXZ
    ??D?$TStringBase@_W@Unreal@RC@@QEBAPEB_WXZ
    ??Y?$TStringBase@D@Unreal@RC@@QEAAAEAV012@AEBV012@@Z
    ??Y?$TStringBase@D@Unreal@RC@@QEAAAEAV012@D@Z
    ??Y?$TStringBase@D@Unreal@RC@@QEAAAEAV012@PEBD@Z
    ??Y?$TStringBase@_Q@Unreal@RC@@QEAAAEAV012@AEBV012@@Z
    ??Y?$TStringBase@_Q@Unreal@RC@@QEAAAEAV012@PEB_Q@Z
    ??Y?$TStringBase@_Q@Unreal@RC@@QEAAAEAV012@_Q@Z
    ??Y?$TStringBase@_W@Unreal@RC@@QEAAAEAV012@AEBV012@@Z
    ??Y?$TStringBase@_W@Unreal@RC@@QEAAAEAV012@PEB_W@Z
    ??Y?$TStringBase@_W@Unreal@RC@@QEAAAEAV012@_W@Z
    ??_7?$FileInterface@VWinFile@File@RC@@@File@RC@@6B@
    ??_7DebugConsoleDevice@Output@RC@@6B@
    ??_7FCallbackMetadata@Internal@Hook@Unreal@RC@@6B@
    ??_7FClassCreateListener@Unreal@RC@@6B@
    ??_7FClassDeleteListener@Unreal@RC@@6B@
    ??_7FFrame_50_AndBelow@Unreal@RC@@6B@
    ??_7FFrame_51_AndAbove@Unreal@RC@@6B@
    ??_7FOutputDevice@Unreal@RC@@6B@
    ??_7FTableRowBase@Unreal@RC@@6B@
    ??_7FUObjectCreateListener@Unreal@RC@@6B@
    ??_7FUObjectDeleteListener@Unreal@RC@@6B@
    ??_7Mod@RC@@6B@
    ??_7OutputDevice@Output@RC@@6B@
    ??_FFCustomPropertyListNode@Unreal@RC@@QEAAXXZ
    ?AddCppProperty@FField@Unreal@RC@@QEAAXPEAVFProperty@23@@Z
    ?AddCppProperty@UField@Unreal@RC@@QEAAXPEAVFProperty@23@@Z
    ?AddDelegate@FMulticastDelegateProperty@Unreal@RC@@QEBAXV?$TScriptDelegate@UFWeakObjectPtr@Unreal@RC@@@23@PEAVUObject@23@PEAX@Z
    ?AddPostCallback@UnrealScriptFunctionData@Unreal@RC@@QEAAHAEBV?$function@$$A6AXAEAVUnrealScriptFunctionCallableContext@Unreal@RC@@PEAX@Z@std@@PEAXPEAVUObject@23@@Z
    ?AddPreCallback@UnrealScriptFunctionData@Unreal@RC@@QEAAHAEBV?$function@$$A6AXAEAVUnrealScriptFunctionCallableContext@Unreal@RC@@PEAX@Z@std@@PEAXPEAVUObject@23@@Z
    ?AddReferencedObjects@FField@Unreal@RC@@QEAAXAEAPEAX@Z
    ?AddRequiredObject@Hook@Unreal@RC@@YAXAEBV?$vector@V?$basic_string_view@_WU?$char_traits@_W@std@@@std@@V?$allocator@V?$basic_string_view@_WU?$char_traits@_W@std@@@std@@@2@@std@@@Z
    ?AddRow@UDataTable@Unreal@RC@@QEAAXVFName@23@AEBUFTableRowBase@23@@Z
    ?AddRow@UDataTable@Unreal@RC@@QEAAXVFName@23@PEBEPEBVUScriptStruct@23@@Z
    ?AddRowInternal@UDataTable@Unreal@RC@@IEAAXVFName@23@PEAE@Z
    ?AddUObjectCreateListener@FUObjectArray@Unreal@RC@@SAXPEAVFUObjectCreateListener@23@@Z
    ?AddUObjectDeleteListener@FUObjectArray@Unreal@RC@@SAXPEAVFUObjectDeleteListener@23@@Z
    ?AllRequiredObjectsConstructed@Hook@Unreal@RC@@YA_NXZ
    ?AllocateAndInitializeValue@FProperty@Unreal@RC@@QEBAPEAXXZ
    ?AllocateUObject@UObjectBase@Unreal@RC@@SAPEAV123@HH_N@Z
    ?AllowCrossLevel@FObjectPropertyBase@Unreal@RC@@QEBA_NXZ
    ?Append@?$TStringBase@D@Unreal@RC@@QEAAAEAV123@AEBV123@@Z
    ?Append@?$TStringBase@D@Unreal@RC@@QEAAAEAV123@PEBD@Z
    ?Append@?$TStringBase@D@Unreal@RC@@QEAAAEAV123@PEBDH@Z
    ?Append@?$TStringBase@_Q@Unreal@RC@@QEAAAEAV123@AEBV123@@Z
    ?Append@?$TStringBase@_Q@Unreal@RC@@QEAAAEAV123@PEB_Q@Z
    ?Append@?$TStringBase@_Q@Unreal@RC@@QEAAAEAV123@PEB_QH@Z
    ?Append@?$TStringBase@_W@Unreal@RC@@QEAAAEAV123@AEBV123@@Z
    ?Append@?$TStringBase@_W@Unreal@RC@@QEAAAEAV123@PEB_W@Z
    ?Append@?$TStringBase@_W@Unreal@RC@@QEAAAEAV123@PEB_WH@Z
    ?AppendChar@?$TStringBase@D@Unreal@RC@@QEAAAEAV123@D@Z
    ?AppendChar@?$TStringBase@_Q@Unreal@RC@@QEAAAEAV123@_Q@Z
    ?AppendChar@?$TStringBase@_W@Unreal@RC@@QEAAAEAV123@_W@Z
    ?AppendChars@?$TStringBase@D@Unreal@RC@@QEAAXPEBDH@Z
    ?AppendChars@?$TStringBase@_Q@Unreal@RC@@QEAAXPEB_QH@Z
    ?AppendChars@?$TStringBase@_W@Unreal@RC@@QEAAXPEB_WH@Z
    ?AppendInt@FString@Unreal@RC@@QEAAAEAV123@H@Z
    ?Appendf@FString@Unreal@RC@@QEAAAEAV123@PEB_WZZ
    ?AreNativePropertiesIdenticalTo@UObject@Unreal@RC@@QEBA_NPEAV123@@Z
    ?ArePropertyGuidsAvailable@UStruct@Unreal@RC@@QEBA_NXZ
    ?AsFFieldUnsafe@UField@Unreal@RC@@IEAAPEAVFField@23@XZ
    ?AsUFieldUnsafe@FField@Unreal@RC@@AEAAPEAVUField@23@XZ
    ?AsUFieldUnsafe@FField@Unreal@RC@@AEBAPEBVUField@23@XZ
    ?AssetClass@FAssetData@Unreal@RC@@QEAA?AVFName@23@XZ
    ?AssetClassPath@FAssetData@Unreal@RC@@QEAAAEAUFTopLevelAssetPath@23@XZ
    ?AssetName@FAssetData@Unreal@RC@@QEAA?AVFName@23@XZ
    ?AssetTypeEquality@?$TProperty@CVFNumericProperty@Unreal@RC@@@Unreal@RC@@IEAA@XZ
    ?AssetTypeEquality@?$TProperty@EVFNumericProperty@Unreal@RC@@@Unreal@RC@@IEAA@XZ
    ?AssetTypeEquality@?$TProperty@FVFNumericProperty@Unreal@RC@@@Unreal@RC@@IEAA@XZ
    ?AssetTypeEquality@?$TProperty@GVFNumericProperty@Unreal@RC@@@Unreal@RC@@IEAA@XZ
    ?AssetTypeEquality@?$TProperty@HVFNumericProperty@Unreal@RC@@@Unreal@RC@@IEAA@XZ
    ?AssetTypeEquality@?$TProperty@IVFNumericProperty@Unreal@RC@@@Unreal@RC@@IEAA@XZ
    ?AssetTypeEquality@?$TProperty@MVFNumericProperty@Unreal@RC@@@Unreal@RC@@IEAA@XZ
    ?AssetTypeEquality@?$TProperty@NVFNumericProperty@Unreal@RC@@@Unreal@RC@@IEAA@XZ
    ?AssetTypeEquality@?$TProperty@PEAVUObject@Unreal@RC@@VFObjectPropertyBase@23@@Unreal@RC@@IEAA@XZ
    ?AssetTypeEquality@?$TProperty@UFFieldPath@Unreal@RC@@VFProperty@23@@Unreal@RC@@IEAA@XZ
    ?AssetTypeEquality@?$TProperty@UFLazyObjectPtr@Unreal@RC@@VFObjectPropertyBase@23@@Unreal@RC@@IEAA@XZ
    ?AssetTypeEquality@?$TProperty@UFSoftObjectPtr@Unreal@RC@@VFObjectPropertyBase@23@@Unreal@RC@@IEAA@XZ
    ?AssetTypeEquality@?$TProperty@UFSparseDelegate@Unreal@RC@@VFMulticastDelegateProperty@23@@Unreal@RC@@IEAA@XZ
    ?AssetTypeEquality@?$TProperty@UFWeakObjectPtr@Unreal@RC@@VFObjectPropertyBase@23@@Unreal@RC@@IEAA@XZ
    ?AssetTypeEquality@?$TProperty@V?$TMulticastScriptDelegate@UFWeakObjectPtr@Unreal@RC@@@Unreal@RC@@VFMulticastDelegateProperty@23@@Unreal@RC@@IEAA@XZ
    ?AssetTypeEquality@?$TProperty@V?$TScriptDelegate@UFWeakObjectPtr@Unreal@RC@@@Unreal@RC@@VFProperty@23@@Unreal@RC@@IEAA@XZ
    ?AssetTypeEquality@?$TProperty@VFAnsiString@Unreal@RC@@VFProperty@23@@Unreal@RC@@IEAA@XZ
    ?AssetTypeEquality@?$TProperty@VFName@Unreal@RC@@VFProperty@23@@Unreal@RC@@IEAA@XZ
    ?AssetTypeEquality@?$TProperty@VFScriptInterface@Unreal@RC@@VFProperty@23@@Unreal@RC@@IEAA@XZ
    ?AssetTypeEquality@?$TProperty@VFScriptMap@Unreal@RC@@VFProperty@23@@Unreal@RC@@IEAA@XZ
    ?AssetTypeEquality@?$TProperty@VFScriptSet@Unreal@RC@@VFProperty@23@@Unreal@RC@@IEAA@XZ
    ?AssetTypeEquality@?$TProperty@VFString@Unreal@RC@@VFProperty@23@@Unreal@RC@@IEAA@XZ
    ?AssetTypeEquality@?$TProperty@VFText@Unreal@RC@@VFProperty@23@@Unreal@RC@@IEAA@XZ
    ?AssetTypeEquality@?$TProperty@VFUtf8String@Unreal@RC@@VFProperty@23@@Unreal@RC@@IEAA@XZ
    ?AssetTypeEquality@?$TProperty@_JVFNumericProperty@Unreal@RC@@@Unreal@RC@@IEAA@XZ
    ?AssetTypeEquality@?$TProperty@_KVFNumericProperty@Unreal@RC@@@Unreal@RC@@IEAA@XZ
    ?AssetsAreLoading@UAssetRegistry@Unreal@RC@@SA_NXZ
    ?AssignFunction@ReflectedFunctionBase@Unreal@RC@@QEAAXPEAVUFunction@23@@Z
    ?BeginDeferredActorSpawnFromClass@UGameplayStatics@Unreal@RC@@SAPEAVAActor@23@PEBVUObject@23@PEAVUClass@23@AEBUFTransform@23@W4ESpawnActorCollisionHandlingMethod@23@PEAV423@@Z
    ?BeginDestroy@FField@Unreal@RC@@QEAAXXZ
    ?BeginDestroy@UObject@Unreal@RC@@QEAAXXZ
    ?BeginPlayInternal@AActor@Unreal@RC@@2V?$Function@$$A6AXPEAVAActor@Unreal@RC@@@Z@3@A
    ?Bind@FField@Unreal@RC@@QEAAXXZ
    ?Bind@UField@Unreal@RC@@QEAAXXZ
    ?BitfieldInfos@AGameMode@Unreal@RC@@2V?$unordered_map@V?$basic_string@_WU?$char_traits@_W@std@@V?$allocator@_W@2@@std@@UBitfieldInfo@Unreal@RC@@U?$hash@V?$basic_string@_WU?$char_traits@_W@std@@V?$allocator@_W@2@@std@@@2@U?$equal_to@V?$basic_string@_WU?$char_traits@_W@std@@V?$allocator@_W@2@@std@@@2@V?$allocator@U?$pair@$$CBV?$basic_string@_WU?$char_traits@_W@std@@V?$allocator@_W@2@@std@@UBitfieldInfo@Unreal@RC@@@std@@@2@@std@@A
    ?BitfieldInfos@AGameModeBase@Unreal@RC@@2V?$unordered_map@V?$basic_string@_WU?$char_traits@_W@std@@V?$allocator@_W@2@@std@@UBitfieldInfo@Unreal@RC@@U?$hash@V?$basic_string@_WU?$char_traits@_W@std@@V?$allocator@_W@2@@std@@@2@U?$equal_to@V?$basic_string@_WU?$char_traits@_W@std@@V?$allocator@_W@2@@std@@@2@V?$allocator@U?$pair@$$CBV?$basic_string@_WU?$char_traits@_W@std@@V?$allocator@_W@2@@std@@UBitfieldInfo@Unreal@RC@@@std@@@2@@std@@A
    ?BitfieldInfos@FArrayProperty@Unreal@RC@@2V?$unordered_map@V?$basic_string@_WU?$char_traits@_W@std@@V?$allocator@_W@2@@std@@UBitfieldInfo@Unreal@RC@@U?$hash@V?$basic_string@_WU?$char_traits@_W@std@@V?$allocator@_W@2@@std@@@2@U?$equal_to@V?$basic_string@_WU?$char_traits@_W@std@@V?$allocator@_W@2@@std@@@2@V?$allocator@U?$pair@$$CBV?$basic_string@_WU?$char_traits@_W@std@@V?$allocator@_W@2@@std@@UBitfieldInfo@Unreal@RC@@@std@@@2@@std@@A
    ?BitfieldInfos@FBoolProperty@Unreal@RC@@2V?$unordered_map@V?$basic_string@_WU?$char_traits@_W@std@@V?$allocator@_W@2@@std@@UBitfieldInfo@Unreal@RC@@U?$hash@V?$basic_string@_WU?$char_traits@_W@std@@V?$allocator@_W@2@@std@@@2@U?$equal_to@V?$basic_string@_WU?$char_traits@_W@std@@V?$allocator@_W@2@@std@@@2@V?$allocator@U?$pair@$$CBV?$basic_string@_WU?$char_traits@_W@std@@V?$allocator@_W@2@@std@@UBitfieldInfo@Unreal@RC@@@std@@@2@@std@@A
    ?BitfieldInfos@FByteProperty@Unreal@RC@@2V?$unordered_map@V?$basic_string@_WU?$char_traits@_W@std@@V?$allocator@_W@2@@std@@UBitfieldInfo@Unreal@RC@@U?$hash@V?$basic_string@_WU?$char_traits@_W@std@@V?$allocator@_W@2@@std@@@2@U?$equal_to@V?$basic_string@_WU?$char_traits@_W@std@@V?$allocator@_W@2@@std@@@2@V?$allocator@U?$pair@$$CBV?$basic_string@_WU?$char_traits@_W@std@@V?$allocator@_W@2@@std@@UBitfieldInfo@Unreal@RC@@@std@@@2@@std@@A
    ?BitfieldInfos@FClassProperty@Unreal@RC@@2V?$unordered_map@V?$basic_string@_WU?$char_traits@_W@std@@V?$allocator@_W@2@@std@@UBitfieldInfo@Unreal@RC@@U?$hash@V?$basic_string@_WU?$char_traits@_W@std@@V?$allocator@_W@2@@std@@@2@U?$equal_to@V?$basic_string@_WU?$char_traits@_W@std@@V?$allocator@_W@2@@std@@@2@V?$allocator@U?$pair@$$CBV?$basic_string@_WU?$char_traits@_W@std@@V?$allocator@_W@2@@std@@UBitfieldInfo@Unreal@RC@@@std@@@2@@std@@A
    ?BitfieldInfos@FDelegateProperty@Unreal@RC@@2V?$unordered_map@V?$basic_string@_WU?$char_traits@_W@std@@V?$allocator@_W@2@@std@@UBitfieldInfo@Unreal@RC@@U?$hash@V?$basic_string@_WU?$char_traits@_W@std@@V?$allocator@_W@2@@std@@@2@U?$equal_to@V?$basic_string@_WU?$char_traits@_W@std@@V?$allocator@_W@2@@std@@@2@V?$allocator@U?$pair@$$CBV?$basic_string@_WU?$char_traits@_W@std@@V?$allocator@_W@2@@std@@UBitfieldInfo@Unreal@RC@@@std@@@2@@std@@A
    ?BitfieldInfos@FEnumProperty@Unreal@RC@@2V?$unordered_map@V?$basic_string@_WU?$char_traits@_W@std@@V?$allocator@_W@2@@std@@UBitfieldInfo@Unreal@RC@@U?$hash@V?$basic_string@_WU?$char_traits@_W@std@@V?$allocator@_W@2@@std@@@2@U?$equal_to@V?$basic_string@_WU?$char_traits@_W@std@@V?$allocator@_W@2@@std@@@2@V?$allocator@U?$pair@$$CBV?$basic_string@_WU?$char_traits@_W@std@@V?$allocator@_W@2@@std@@UBitfieldInfo@Unreal@RC@@@std@@@2@@std@@A
    ?BitfieldInfos@FField@Unreal@RC@@2V?$unordered_map@V?$basic_string@_WU?$char_traits@_W@std@@V?$allocator@_W@2@@std@@UBitfieldInfo@Unreal@RC@@U?$hash@V?$basic_string@_WU?$char_traits@_W@std@@V?$allocator@_W@2@@std@@@2@U?$equal_to@V?$basic_string@_WU?$char_traits@_W@std@@V?$allocator@_W@2@@std@@@2@V?$allocator@U?$pair@$$CBV?$basic_string@_WU?$char_traits@_W@std@@V?$allocator@_W@2@@std@@UBitfieldInfo@Unreal@RC@@@std@@@2@@std@@A
    ?BitfieldInfos@FFieldClass@Unreal@RC@@2V?$unordered_map@V?$basic_string@_WU?$char_traits@_W@std@@V?$allocator@_W@2@@std@@UBitfieldInfo@Unreal@RC@@U?$hash@V?$basic_string@_WU?$char_traits@_W@std@@V?$allocator@_W@2@@std@@@2@U?$equal_to@V?$basic_string@_WU?$char_traits@_W@std@@V?$allocator@_W@2@@std@@@2@V?$allocator@U?$pair@$$CBV?$basic_string@_WU?$char_traits@_W@std@@V?$allocator@_W@2@@std@@UBitfieldInfo@Unreal@RC@@@std@@@2@@std@@A
    ?BitfieldInfos@FFieldPathProperty@Unreal@RC@@2V?$unordered_map@V?$basic_string@_WU?$char_traits@_W@std@@V?$allocator@_W@2@@std@@UBitfieldInfo@Unreal@RC@@U?$hash@V?$basic_string@_WU?$char_traits@_W@std@@V?$allocator@_W@2@@std@@@2@U?$equal_to@V?$basic_string@_WU?$char_traits@_W@std@@V?$allocator@_W@2@@std@@@2@V?$allocator@U?$pair@$$CBV?$basic_string@_WU?$char_traits@_W@std@@V?$allocator@_W@2@@std@@UBitfieldInfo@Unreal@RC@@@std@@@2@@std@@A
    ?BitfieldInfos@FInterfaceProperty@Unreal@RC@@2V?$unordered_map@V?$basic_string@_WU?$char_traits@_W@std@@V?$allocator@_W@2@@std@@UBitfieldInfo@Unreal@RC@@U?$hash@V?$basic_string@_WU?$char_traits@_W@std@@V?$allocator@_W@2@@std@@@2@U?$equal_to@V?$basic_string@_WU?$char_traits@_W@std@@V?$allocator@_W@2@@std@@@2@V?$allocator@U?$pair@$$CBV?$basic_string@_WU?$char_traits@_W@std@@V?$allocator@_W@2@@std@@UBitfieldInfo@Unreal@RC@@@std@@@2@@std@@A
    ?BitfieldInfos@FMapProperty@Unreal@RC@@2V?$unordered_map@V?$basic_string@_WU?$char_traits@_W@std@@V?$allocator@_W@2@@std@@UBitfieldInfo@Unreal@RC@@U?$hash@V?$basic_string@_WU?$char_traits@_W@std@@V?$allocator@_W@2@@std@@@2@U?$equal_to@V?$basic_string@_WU?$char_traits@_W@std@@V?$allocator@_W@2@@std@@@2@V?$allocator@U?$pair@$$CBV?$basic_string@_WU?$char_traits@_W@std@@V?$allocator@_W@2@@std@@UBitfieldInfo@Unreal@RC@@@std@@@2@@std@@A
    ?BitfieldInfos@FMulticastDelegateProperty@Unreal@RC@@2V?$unordered_map@V?$basic_string@_WU?$char_traits@_W@std@@V?$allocator@_W@2@@std@@UBitfieldInfo@Unreal@RC@@U?$hash@V?$basic_string@_WU?$char_traits@_W@std@@V?$allocator@_W@2@@std@@@2@U?$equal_to@V?$basic_string@_WU?$char_traits@_W@std@@V?$allocator@_W@2@@std@@@2@V?$allocator@U?$pair@$$CBV?$basic_string@_WU?$char_traits@_W@std@@V?$allocator@_W@2@@std@@UBitfieldInfo@Unreal@RC@@@std@@@2@@std@@A
    ?BitfieldInfos@FObjectPropertyBase@Unreal@RC@@2V?$unordered_map@V?$basic_string@_WU?$char_traits@_W@std@@V?$allocator@_W@2@@std@@UBitfieldInfo@Unreal@RC@@U?$hash@V?$basic_string@_WU?$char_traits@_W@std@@V?$allocator@_W@2@@std@@@2@U?$equal_to@V?$basic_string@_WU?$char_traits@_W@std@@V?$allocator@_W@2@@std@@@2@V?$allocator@U?$pair@$$CBV?$basic_string@_WU?$char_traits@_W@std@@V?$allocator@_W@2@@std@@UBitfieldInfo@Unreal@RC@@@std@@@2@@std@@A
    ?BitfieldInfos@FOutputDevice@Unreal@RC@@2V?$unordered_map@V?$basic_string@_WU?$char_traits@_W@std@@V?$allocator@_W@2@@std@@UBitfieldInfo@Unreal@RC@@U?$hash@V?$basic_string@_WU?$char_traits@_W@std@@V?$allocator@_W@2@@std@@@2@U?$equal_to@V?$basic_string@_WU?$char_traits@_W@std@@V?$allocator@_W@2@@std@@@2@V?$allocator@U?$pair@$$CBV?$basic_string@_WU?$char_traits@_W@std@@V?$allocator@_W@2@@std@@UBitfieldInfo@Unreal@RC@@@std@@@2@@std@@A
    ?BitfieldInfos@FProperty@Unreal@RC@@2V?$unordered_map@V?$basic_string@_WU?$char_traits@_W@std@@V?$allocator@_W@2@@std@@UBitfieldInfo@Unreal@RC@@U?$hash@V?$basic_string@_WU?$char_traits@_W@std@@V?$allocator@_W@2@@std@@@2@U?$equal_to@V?$basic_string@_WU?$char_traits@_W@std@@V?$allocator@_W@2@@std@@@2@V?$allocator@U?$pair@$$CBV?$basic_string@_WU?$char_traits@_W@std@@V?$allocator@_W@2@@std@@UBitfieldInfo@Unreal@RC@@@std@@@2@@std@@A
    ?BitfieldInfos@FSetProperty@Unreal@RC@@2V?$unordered_map@V?$basic_string@_WU?$char_traits@_W@std@@V?$allocator@_W@2@@std@@UBitfieldInfo@Unreal@RC@@U?$hash@V?$basic_string@_WU?$char_traits@_W@std@@V?$allocator@_W@2@@std@@@2@U?$equal_to@V?$basic_string@_WU?$char_traits@_W@std@@V?$allocator@_W@2@@std@@@2@V?$allocator@U?$pair@$$CBV?$basic_string@_WU?$char_traits@_W@std@@V?$allocator@_W@2@@std@@UBitfieldInfo@Unreal@RC@@@std@@@2@@std@@A
    ?BitfieldInfos@FSoftClassProperty@Unreal@RC@@2V?$unordered_map@V?$basic_string@_WU?$char_traits@_W@std@@V?$allocator@_W@2@@std@@UBitfieldInfo@Unreal@RC@@U?$hash@V?$basic_string@_WU?$char_traits@_W@std@@V?$allocator@_W@2@@std@@@2@U?$equal_to@V?$basic_string@_WU?$char_traits@_W@std@@V?$allocator@_W@2@@std@@@2@V?$allocator@U?$pair@$$CBV?$basic_string@_WU?$char_traits@_W@std@@V?$allocator@_W@2@@std@@UBitfieldInfo@Unreal@RC@@@std@@@2@@std@@A
    ?BitfieldInfos@FStructProperty@Unreal@RC@@2V?$unordered_map@V?$basic_string@_WU?$char_traits@_W@std@@V?$allocator@_W@2@@std@@UBitfieldInfo@Unreal@RC@@U?$hash@V?$basic_string@_WU?$char_traits@_W@std@@V?$allocator@_W@2@@std@@@2@U?$equal_to@V?$basic_string@_WU?$char_traits@_W@std@@V?$allocator@_W@2@@std@@@2@V?$allocator@U?$pair@$$CBV?$basic_string@_WU?$char_traits@_W@std@@V?$allocator@_W@2@@std@@UBitfieldInfo@Unreal@RC@@@std@@@2@@std@@A
    ?BitfieldInfos@FUObjectArray@Unreal@RC@@2V?$unordered_map@V?$basic_string@_WU?$char_traits@_W@std@@V?$allocator@_W@2@@std@@UBitfieldInfo@Unreal@RC@@U?$hash@V?$basic_string@_WU?$char_traits@_W@std@@V?$allocator@_W@2@@std@@@2@U?$equal_to@V?$basic_string@_WU?$char_traits@_W@std@@V?$allocator@_W@2@@std@@@2@V?$allocator@U?$pair@$$CBV?$basic_string@_WU?$char_traits@_W@std@@V?$allocator@_W@2@@std@@UBitfieldInfo@Unreal@RC@@@std@@@2@@std@@A
    ?BitfieldInfos@FUObjectItem@Unreal@RC@@2V?$unordered_map@V?$basic_string@_WU?$char_traits@_W@std@@V?$allocator@_W@2@@std@@UBitfieldInfo@Unreal@RC@@U?$hash@V?$basic_string@_WU?$char_traits@_W@std@@V?$allocator@_W@2@@std@@@2@U?$equal_to@V?$basic_string@_WU?$char_traits@_W@std@@V?$allocator@_W@2@@std@@@2@V?$allocator@U?$pair@$$CBV?$basic_string@_WU?$char_traits@_W@std@@V?$allocator@_W@2@@std@@UBitfieldInfo@Unreal@RC@@@std@@@2@@std@@A
    ?BitfieldInfos@FWorldContext@Unreal@RC@@2V?$unordered_map@V?$basic_string@_WU?$char_traits@_W@std@@V?$allocator@_W@2@@std@@UBitfieldInfo@Unreal@RC@@U?$hash@V?$basic_string@_WU?$char_traits@_W@std@@V?$allocator@_W@2@@std@@@2@U?$equal_to@V?$basic_string@_WU?$char_traits@_W@std@@V?$allocator@_W@2@@std@@@2@V?$allocator@U?$pair@$$CBV?$basic_string@_WU?$char_traits@_W@std@@V?$allocator@_W@2@@std@@UBitfieldInfo@Unreal@RC@@@std@@@2@@std@@A
    ?BitfieldInfos@ICppStructOps@UScriptStruct@Unreal@RC@@2V?$unordered_map@V?$basic_string@_WU?$char_traits@_W@std@@V?$allocator@_W@2@@std@@UBitfieldInfo@Unreal@RC@@U?$hash@V?$basic_string@_WU?$char_traits@_W@std@@V?$allocator@_W@2@@std@@@2@U?$equal_to@V?$basic_string@_WU?$char_traits@_W@std@@V?$allocator@_W@2@@std@@@2@V?$allocator@U?$pair@$$CBV?$basic_string@_WU?$char_traits@_W@std@@V?$allocator@_W@2@@std@@UBitfieldInfo@Unreal@RC@@@std@@@2@@std@@A
    ?BitfieldInfos@TUObjectArray@Unreal@RC@@2V?$unordered_map@V?$basic_string@_WU?$char_traits@_W@std@@V?$allocator@_W@2@@std@@UBitfieldInfo@Unreal@RC@@U?$hash@V?$basic_string@_WU?$char_traits@_W@std@@V?$allocator@_W@2@@std@@@2@U?$equal_to@V?$basic_string@_WU?$char_traits@_W@std@@V?$allocator@_W@2@@std@@@2@V?$allocator@U?$pair@$$CBV?$basic_string@_WU?$char_traits@_W@std@@V?$allocator@_W@2@@std@@UBitfieldInfo@Unreal@RC@@@std@@@2@@std@@A
    ?BitfieldInfos@UClass@Unreal@RC@@2V?$unordered_map@V?$basic_string@_WU?$char_traits@_W@std@@V?$allocator@_W@2@@std@@UBitfieldInfo@Unreal@RC@@U?$hash@V?$basic_string@_WU?$char_traits@_W@std@@V?$allocator@_W@2@@std@@@2@U?$equal_to@V?$basic_string@_WU?$char_traits@_W@std@@V?$allocator@_W@2@@std@@@2@V?$allocator@U?$pair@$$CBV?$basic_string@_WU?$char_traits@_W@std@@V?$allocator@_W@2@@std@@UBitfieldInfo@Unreal@RC@@@std@@@2@@std@@A
    ?BitfieldInfos@UDataTable@Unreal@RC@@2V?$unordered_map@V?$basic_string@_WU?$char_traits@_W@std@@V?$allocator@_W@2@@std@@UBitfieldInfo@Unreal@RC@@U?$hash@V?$basic_string@_WU?$char_traits@_W@std@@V?$allocator@_W@2@@std@@@2@U?$equal_to@V?$basic_string@_WU?$char_traits@_W@std@@V?$allocator@_W@2@@std@@@2@V?$allocator@U?$pair@$$CBV?$basic_string@_WU?$char_traits@_W@std@@V?$allocator@_W@2@@std@@UBitfieldInfo@Unreal@RC@@@std@@@2@@std@@A
    ?BitfieldInfos@UEnum@Unreal@RC@@2V?$unordered_map@V?$basic_string@_WU?$char_traits@_W@std@@V?$allocator@_W@2@@std@@UBitfieldInfo@Unreal@RC@@U?$hash@V?$basic_string@_WU?$char_traits@_W@std@@V?$allocator@_W@2@@std@@@2@U?$equal_to@V?$basic_string@_WU?$char_traits@_W@std@@V?$allocator@_W@2@@std@@@2@V?$allocator@U?$pair@$$CBV?$basic_string@_WU?$char_traits@_W@std@@V?$allocator@_W@2@@std@@UBitfieldInfo@Unreal@RC@@@std@@@2@@std@@A
    ?BitfieldInfos@UField@Unreal@RC@@2V?$unordered_map@V?$basic_string@_WU?$char_traits@_W@std@@V?$allocator@_W@2@@std@@UBitfieldInfo@Unreal@RC@@U?$hash@V?$basic_string@_WU?$char_traits@_W@std@@V?$allocator@_W@2@@std@@@2@U?$equal_to@V?$basic_string@_WU?$char_traits@_W@std@@V?$allocator@_W@2@@std@@@2@V?$allocator@U?$pair@$$CBV?$basic_string@_WU?$char_traits@_W@std@@V?$allocator@_W@2@@std@@UBitfieldInfo@Unreal@RC@@@std@@@2@@std@@A
    ?BitfieldInfos@UFunction@Unreal@RC@@2V?$unordered_map@V?$basic_string@_WU?$char_traits@_W@std@@V?$allocator@_W@2@@std@@UBitfieldInfo@Unreal@RC@@U?$hash@V?$basic_string@_WU?$char_traits@_W@std@@V?$allocator@_W@2@@std@@@2@U?$equal_to@V?$basic_string@_WU?$char_traits@_W@std@@V?$allocator@_W@2@@std@@@2@V?$allocator@U?$pair@$$CBV?$basic_string@_WU?$char_traits@_W@std@@V?$allocator@_W@2@@std@@UBitfieldInfo@Unreal@RC@@@std@@@2@@std@@A
    ?BitfieldInfos@ULocalPlayer@Unreal@RC@@2V?$unordered_map@V?$basic_string@_WU?$char_traits@_W@std@@V?$allocator@_W@2@@std@@UBitfieldInfo@Unreal@RC@@U?$hash@V?$basic_string@_WU?$char_traits@_W@std@@V?$allocator@_W@2@@std@@@2@U?$equal_to@V?$basic_string@_WU?$char_traits@_W@std@@V?$allocator@_W@2@@std@@@2@V?$allocator@U?$pair@$$CBV?$basic_string@_WU?$char_traits@_W@std@@V?$allocator@_W@2@@std@@UBitfieldInfo@Unreal@RC@@@std@@@2@@std@@A
    ?BitfieldInfos@UObjectBase@Unreal@RC@@2V?$unordered_map@V?$basic_string@_WU?$char_traits@_W@std@@V?$allocator@_W@2@@std@@UBitfieldInfo@Unreal@RC@@U?$hash@V?$basic_string@_WU?$char_traits@_W@std@@V?$allocator@_W@2@@std@@@2@U?$equal_to@V?$basic_string@_WU?$char_traits@_W@std@@V?$allocator@_W@2@@std@@@2@V?$allocator@U?$pair@$$CBV?$basic_string@_WU?$char_traits@_W@std@@V?$allocator@_W@2@@std@@UBitfieldInfo@Unreal@RC@@@std@@@2@@std@@A
    ?BitfieldInfos@UPlayer@Unreal@RC@@2V?$unordered_map@V?$basic_string@_WU?$char_traits@_W@std@@V?$allocator@_W@2@@std@@UBitfieldInfo@Unreal@RC@@U?$hash@V?$basic_string@_WU?$char_traits@_W@std@@V?$allocator@_W@2@@std@@@2@U?$equal_to@V?$basic_string@_WU?$char_traits@_W@std@@V?$allocator@_W@2@@std@@@2@V?$allocator@U?$pair@$$CBV?$basic_string@_WU?$char_traits@_W@std@@V?$allocator@_W@2@@std@@UBitfieldInfo@Unreal@RC@@@std@@@2@@std@@A
    ?BitfieldInfos@UScriptStruct@Unreal@RC@@2V?$unordered_map@V?$basic_string@_WU?$char_traits@_W@std@@V?$allocator@_W@2@@std@@UBitfieldInfo@Unreal@RC@@U?$hash@V?$basic_string@_WU?$char_traits@_W@std@@V?$allocator@_W@2@@std@@@2@U?$equal_to@V?$basic_string@_WU?$char_traits@_W@std@@V?$allocator@_W@2@@std@@@2@V?$allocator@U?$pair@$$CBV?$basic_string@_WU?$char_traits@_W@std@@V?$allocator@_W@2@@std@@UBitfieldInfo@Unreal@RC@@@std@@@2@@std@@A
    ?BitfieldInfos@UStruct@Unreal@RC@@2V?$unordered_map@V?$basic_string@_WU?$char_traits@_W@std@@V?$allocator@_W@2@@std@@UBitfieldInfo@Unreal@RC@@U?$hash@V?$basic_string@_WU?$char_traits@_W@std@@V?$allocator@_W@2@@std@@@2@U?$equal_to@V?$basic_string@_WU?$char_traits@_W@std@@V?$allocator@_W@2@@std@@@2@V?$allocator@U?$pair@$$CBV?$basic_string@_WU?$char_traits@_W@std@@V?$allocator@_W@2@@std@@UBitfieldInfo@Unreal@RC@@@std@@@2@@std@@A
    ?BitfieldInfos@UWorld@Unreal@RC@@2V?$unordered_map@V?$basic_string@_WU?$char_traits@_W@std@@V?$allocator@_W@2@@std@@UBitfieldInfo@Unreal@RC@@U?$hash@V?$basic_string@_WU?$char_traits@_W@std@@V?$allocator@_W@2@@std@@@2@U?$equal_to@V?$basic_string@_WU?$char_traits@_W@std@@V?$allocator@_W@2@@std@@@2@V?$allocator@U?$pair@$$CBV?$basic_string@_WU?$char_traits@_W@std@@V?$allocator@_W@2@@std@@UBitfieldInfo@Unreal@RC@@@std@@@2@@std@@A
    ?BuildSubobjectMapping@UObject@Unreal@RC@@QEBAXPEAV123@AEAV?$TMap@PEAVUObject@Unreal@RC@@PEAV123@VFDefaultSetAllocator@23@U?$TDefaultMapHashableKeyFuncs@PEAVUObject@Unreal@RC@@PEAV123@$0A@@23@@23@@Z
    ?CalcIsSetOffset@FOptionalProperty@Unreal@RC@@IEBAHXZ
    ?CalcIsSetOffset@FOptionalPropertyLayout@Unreal@RC@@IEBAHXZ
    ?CalcSize@FOptionalProperty@Unreal@RC@@QEBAHXZ
    ?CalcSize@FOptionalPropertyLayout@Unreal@RC@@QEBAHXZ
    ?CallFunctionByNameWithArgumentsInternal@UObject@Unreal@RC@@2V?$Function@$$A6A_NPEAVUObject@Unreal@RC@@PEB_WAEAVFOutputDevice@23@0_N@Z@3@A
    ?CallRemoteFunction@UObject@Unreal@RC@@QEAA_NPEAVUFunction@23@PEAXPEAUFOutParmRec@23@PEAUFFrame@23@@Z
    ?CanBeClusterRoot@UObjectBaseUtility@Unreal@RC@@QEBA_NXZ
    ?CanBeInCluster@UObjectBaseUtility@Unreal@RC@@QEBA_NXZ
    ?CanBeUsedOnAnyThread@FOutputDevice@Unreal@RC@@QEBA_NXZ
    ?CanBeUsedOnMultipleThreads@FOutputDevice@Unreal@RC@@QEBA_NXZ
    ?CanHoldDoubleValueInternal@FNumericProperty@Unreal@RC@@QEBA_NN@Z
    ?CanHoldSignedValueInternal@FNumericProperty@Unreal@RC@@QEBA_N_J@Z
    ?CanHoldUnsignedValueInternal@FNumericProperty@Unreal@RC@@QEBA_N_K@Z
    ?CategorizedLogfImpl@FOutputDevice@Unreal@RC@@AEAAXAEBVFName@23@W4Type@ELogVerbosity@23@PEB_WZZ
    ?CheckDefaultSubobjectsInternal@UObject@Unreal@RC@@QEBA_NXZ
    ?CheckInvariants@?$TStringBase@D@Unreal@RC@@QEBAXXZ
    ?CheckInvariants@?$TStringBase@_Q@Unreal@RC@@QEBAXXZ
    ?CheckInvariants@?$TStringBase@_W@Unreal@RC@@QEBAXXZ
    ?CheckValidObject@FObjectPropertyBase@Unreal@RC@@QEBAXPEAX@Z
    ?ChunkIDs@FAssetData@Unreal@RC@@QEAAXXZ
    ?ClassCreateListener@FClassCreateListener@Unreal@RC@@2U123@A
    ?ClassDeleteListener@FClassDeleteListener@Unreal@RC@@2U123@A
    ?Clear@FString@Unreal@RC@@QEAAXXZ
    ?ClearAndDisableTLSCachesOnCurrentThread@FMalloc@Unreal@RC@@QEAAXXZ
    ?ClearAndDisableTLSCachesOnCurrentThread@FMemory@Unreal@RC@@SAXXZ
    ?ClearDelegate@FMulticastDelegateProperty@Unreal@RC@@QEBAXPEAVUObject@23@PEAX@Z
    ?ClearFlags@UObject@Unreal@RC@@QEAAXW4EObjectFlags@23@@Z
    ?ClearIntrusiveOptionalValue@FProperty@Unreal@RC@@QEBAXPEAX@Z
    ?ClearRootSet@UObject@Unreal@RC@@QEAAXXZ
    ?ClearValue@FProperty@Unreal@RC@@QEAAXPEAX@Z
    ?ClearValue@FProperty@Unreal@RC@@QEBAXPEAX@Z
    ?ClearValueImpl@?$TProperty@CVFNumericProperty@Unreal@RC@@@Unreal@RC@@IEAAXPEAX@Z
    ?ClearValueImpl@?$TProperty@EVFNumericProperty@Unreal@RC@@@Unreal@RC@@IEAAXPEAX@Z
    ?ClearValueImpl@?$TProperty@FVFNumericProperty@Unreal@RC@@@Unreal@RC@@IEAAXPEAX@Z
    ?ClearValueImpl@?$TProperty@GVFNumericProperty@Unreal@RC@@@Unreal@RC@@IEAAXPEAX@Z
    ?ClearValueImpl@?$TProperty@HVFNumericProperty@Unreal@RC@@@Unreal@RC@@IEAAXPEAX@Z
    ?ClearValueImpl@?$TProperty@IVFNumericProperty@Unreal@RC@@@Unreal@RC@@IEAAXPEAX@Z
    ?ClearValueImpl@?$TProperty@MVFNumericProperty@Unreal@RC@@@Unreal@RC@@IEAAXPEAX@Z
    ?ClearValueImpl@?$TProperty@NVFNumericProperty@Unreal@RC@@@Unreal@RC@@IEAAXPEAX@Z
    ?ClearValueImpl@?$TProperty@PEAVUObject@Unreal@RC@@VFObjectPropertyBase@23@@Unreal@RC@@IEAAXPEAX@Z
    ?ClearValueImpl@?$TProperty@UFFieldPath@Unreal@RC@@VFProperty@23@@Unreal@RC@@IEAAXPEAX@Z
    ?ClearValueImpl@?$TProperty@UFLazyObjectPtr@Unreal@RC@@VFObjectPropertyBase@23@@Unreal@RC@@IEAAXPEAX@Z
    ?ClearValueImpl@?$TProperty@UFSoftObjectPtr@Unreal@RC@@VFObjectPropertyBase@23@@Unreal@RC@@IEAAXPEAX@Z
    ?ClearValueImpl@?$TProperty@UFSparseDelegate@Unreal@RC@@VFMulticastDelegateProperty@23@@Unreal@RC@@IEAAXPEAX@Z
    ?ClearValueImpl@?$TProperty@UFWeakObjectPtr@Unreal@RC@@VFObjectPropertyBase@23@@Unreal@RC@@IEAAXPEAX@Z
    ?ClearValueImpl@?$TProperty@V?$TMulticastScriptDelegate@UFWeakObjectPtr@Unreal@RC@@@Unreal@RC@@VFMulticastDelegateProperty@23@@Unreal@RC@@IEAAXPEAX@Z
    ?ClearValueImpl@?$TProperty@V?$TScriptDelegate@UFWeakObjectPtr@Unreal@RC@@@Unreal@RC@@VFProperty@23@@Unreal@RC@@IEAAXPEAX@Z
    ?ClearValueImpl@?$TProperty@VFAnsiString@Unreal@RC@@VFProperty@23@@Unreal@RC@@IEAAXPEAX@Z
    ?ClearValueImpl@?$TProperty@VFName@Unreal@RC@@VFProperty@23@@Unreal@RC@@IEAAXPEAX@Z
    ?ClearValueImpl@?$TProperty@VFScriptInterface@Unreal@RC@@VFProperty@23@@Unreal@RC@@IEAAXPEAX@Z
    ?ClearValueImpl@?$TProperty@VFScriptMap@Unreal@RC@@VFProperty@23@@Unreal@RC@@IEAAXPEAX@Z
    ?ClearValueImpl@?$TProperty@VFScriptSet@Unreal@RC@@VFProperty@23@@Unreal@RC@@IEAAXPEAX@Z
    ?ClearValueImpl@?$TProperty@VFString@Unreal@RC@@VFProperty@23@@Unreal@RC@@IEAAXPEAX@Z
    ?ClearValueImpl@?$TProperty@VFText@Unreal@RC@@VFProperty@23@@Unreal@RC@@IEAAXPEAX@Z
    ?ClearValueImpl@?$TProperty@VFUtf8String@Unreal@RC@@VFProperty@23@@Unreal@RC@@IEAAXPEAX@Z
    ?ClearValueImpl@?$TProperty@_JVFNumericProperty@Unreal@RC@@@Unreal@RC@@IEAAXPEAX@Z
    ?ClearValueImpl@?$TProperty@_KVFNumericProperty@Unreal@RC@@@Unreal@RC@@IEAAXPEAX@Z
    ?ClearValueInternal@FProperty@Unreal@RC@@QEBAXPEAX@Z
    ?ClearValue_InContainer@FProperty@Unreal@RC@@QEAAXPEAXH@Z
    ?Code@FFrame@Unreal@RC@@QEAAAEAPEAEXZ
    ?Compare@?$TStringBase@D@Unreal@RC@@QEBAHAEBV123@W4Type@ESearchCase@23@@Z
    ?Compare@?$TStringBase@_Q@Unreal@RC@@QEBAHAEBV123@W4Type@ESearchCase@23@@Z
    ?Compare@?$TStringBase@_W@Unreal@RC@@QEBAHAEBV123@W4Type@ESearchCase@23@@Z
    ?CompareIndexes@FName@Unreal@RC@@QEBAHAEBV123@@Z
    ?Construct@FField@Unreal@RC@@SAPEAV123@AEBVFFieldVariant@23@AEBVFName@23@W4EObjectFlags@23@@Z
    ?Construct@FField@Unreal@RC@@SAPEAV123@AEBVFName@23@AEBVFFieldVariant@23@0W4EObjectFlags@23@@Z
    ?Construct@FFieldClass@Unreal@RC@@QEBAPEAVFField@23@AEBVFFieldVariant@23@AEBVFName@23@W4EObjectFlags@23@@Z
    ?Construct@ICppStructOps@UScriptStruct@Unreal@RC@@QEAAXPEAX@Z
    ?ConstructorInternal@FName@Unreal@RC@@2V?$Function@$$A6A?AVFName@Unreal@RC@@PEB_WW4EFindName@23@@Z@3@A
    ?ContainerUObjectPtrToValuePtrInternal@FProperty@Unreal@RC@@AEBAPEAXPEAVUObject@23@H@Z
    ?ContainerVoidPtrToValuePtrInternal@FProperty@Unreal@RC@@AEBAPEAXPEAXH@Z
    ?Contains@?$TStringBase@D@Unreal@RC@@QEBA_NAEBV123@W4Type@ESearchCase@23@W44ESearchDir@23@@Z
    ?Contains@?$TStringBase@D@Unreal@RC@@QEBA_NPEBDW4Type@ESearchCase@23@W44ESearchDir@23@@Z
    ?Contains@?$TStringBase@_Q@Unreal@RC@@QEBA_NAEBV123@W4Type@ESearchCase@23@W44ESearchDir@23@@Z
    ?Contains@?$TStringBase@_Q@Unreal@RC@@QEBA_NPEB_QW4Type@ESearchCase@23@W44ESearchDir@23@@Z
    ?Contains@?$TStringBase@_W@Unreal@RC@@QEBA_NAEBV123@W4Type@ESearchCase@23@W44ESearchDir@23@@Z
    ?Contains@?$TStringBase@_W@Unreal@RC@@QEBA_NPEB_WW4Type@ESearchCase@23@W44ESearchDir@23@@Z
    ?ContainsInstancedObjectProperty@FProperty@Unreal@RC@@QEBA_NXZ
    ?ContainsObjectReference@FProperty@Unreal@RC@@QEBA_NAEAV?$TArray@PEBVFStructProperty@Unreal@RC@@V?$TSizedDefaultAllocator@$0CA@@23@@23@@Z
    ?ContainsObjectReference@FProperty@Unreal@RC@@QEBA_NAEAV?$TArray@PEBVFStructProperty@Unreal@RC@@V?$TSizedDefaultAllocator@$0CA@@23@@23@W4EPropertyObjectReferenceType@23@@Z
    ?ContainsWeakObjectReference@FProperty@Unreal@RC@@QEBA_NXZ
    ?Conv_NameToStringInternal@FName@Unreal@RC@@2PEAVUFunction@23@EA
    ?Conv_StringToText@UKismetTextLibrary@Unreal@RC@@SA?AVFText@23@AEBVFString@23@@Z
    ?Conv_TextToString@UKismetTextLibrary@Unreal@RC@@SA?AVFString@23@AEBVFText@23@@Z
    ?Convert@Private@Core@UE@Unreal@RC@@YAPEADPEADHPEB_Q@Z
    ?Convert@Private@Core@UE@Unreal@RC@@YAPEADPEADHPEB_QH@Z
    ?Convert@Private@Core@UE@Unreal@RC@@YAPEAGPEAGHPEB_Q@Z
    ?Convert@Private@Core@UE@Unreal@RC@@YAPEAGPEAGHPEB_QH@Z
    ?Convert@Private@Core@UE@Unreal@RC@@YAPEA_QPEA_QHPEBG@Z
    ?Convert@Private@Core@UE@Unreal@RC@@YAPEA_QPEA_QHPEBGH@Z
    ?Convert@Private@Core@UE@Unreal@RC@@YAPEA_QPEA_QHPEB_U@Z
    ?Convert@Private@Core@UE@Unreal@RC@@YAPEA_QPEA_QHPEB_UH@Z
    ?Convert@Private@Core@UE@Unreal@RC@@YAPEA_QPEA_QHPEB_W@Z
    ?Convert@Private@Core@UE@Unreal@RC@@YAPEA_QPEA_QHPEB_WH@Z
    ?Convert@Private@Core@UE@Unreal@RC@@YAPEA_WPEA_WHPEB_Q@Z
    ?Convert@Private@Core@UE@Unreal@RC@@YAPEA_WPEA_WHPEB_QH@Z
    ?ConvertFromType@FProperty@Unreal@RC@@QEAAHAEBQEAXW4FSlot@FStructuredArchive@123@PEAEPEAVUStruct@23@@Z
    ?Copy@ICppStructOps@UScriptStruct@Unreal@RC@@QEAA_NPEAXPEBXH@Z
    ?CopyCompleteValue@FProperty@Unreal@RC@@QEBAXPEAXPEBX@Z
    ?CopyCompleteValueFromScriptVM@FProperty@Unreal@RC@@QEBAXPEAXPEBX@Z
    ?CopyCompleteValueToScriptVM@FProperty@Unreal@RC@@QEBAXPEAXPEBX@Z
    ?CopyCompleteValueToScriptVM_InContainer@FProperty@Unreal@RC@@QEBAXPEAXPEBX@Z
    ?CopyCompleteValue_InContainer@FProperty@Unreal@RC@@QEAAXPEAXPEBX@Z
    ?CopyScriptStruct@UScriptStruct@Unreal@RC@@QEAAXPEAXPEBXH@Z
    ?CopySingleValue@FProperty@Unreal@RC@@QEAAXPEAXPEBX@Z
    ?CopySingleValueFromScriptVM@FProperty@Unreal@RC@@QEBAXPEAXPEBX@Z
    ?CopySingleValueToScriptVM@FProperty@Unreal@RC@@QEBAXPEAXPEBX@Z
    ?CopyValuesFromScriptVMInternal@FProperty@Unreal@RC@@QEAAXPEAXPEBXH@Z
    ?CopyValuesFromScriptVMInternal_Impl@FProperty@Unreal@RC@@IEAAXPEAXPEBXH@Z
    ?CopyValuesInternal@FProperty@Unreal@RC@@QEBAXPEAXPEBXH@Z
    ?CopyValuesInternalImpl@?$TProperty@CVFNumericProperty@Unreal@RC@@@Unreal@RC@@IEAAXPEAXPEBXH@Z
    ?CopyValuesInternalImpl@?$TProperty@EVFNumericProperty@Unreal@RC@@@Unreal@RC@@IEAAXPEAXPEBXH@Z
    ?CopyValuesInternalImpl@?$TProperty@FVFNumericProperty@Unreal@RC@@@Unreal@RC@@IEAAXPEAXPEBXH@Z
    ?CopyValuesInternalImpl@?$TProperty@GVFNumericProperty@Unreal@RC@@@Unreal@RC@@IEAAXPEAXPEBXH@Z
    ?CopyValuesInternalImpl@?$TProperty@HVFNumericProperty@Unreal@RC@@@Unreal@RC@@IEAAXPEAXPEBXH@Z
    ?CopyValuesInternalImpl@?$TProperty@IVFNumericProperty@Unreal@RC@@@Unreal@RC@@IEAAXPEAXPEBXH@Z
    ?CopyValuesInternalImpl@?$TProperty@MVFNumericProperty@Unreal@RC@@@Unreal@RC@@IEAAXPEAXPEBXH@Z
    ?CopyValuesInternalImpl@?$TProperty@NVFNumericProperty@Unreal@RC@@@Unreal@RC@@IEAAXPEAXPEBXH@Z
    ?CopyValuesInternalImpl@?$TProperty@PEAVUObject@Unreal@RC@@VFObjectPropertyBase@23@@Unreal@RC@@IEAAXPEAXPEBXH@Z
    ?CopyValuesInternalImpl@?$TProperty@UFFieldPath@Unreal@RC@@VFProperty@23@@Unreal@RC@@IEAAXPEAXPEBXH@Z
    ?CopyValuesInternalImpl@?$TProperty@UFLazyObjectPtr@Unreal@RC@@VFObjectPropertyBase@23@@Unreal@RC@@IEAAXPEAXPEBXH@Z
    ?CopyValuesInternalImpl@?$TProperty@UFSoftObjectPtr@Unreal@RC@@VFObjectPropertyBase@23@@Unreal@RC@@IEAAXPEAXPEBXH@Z
    ?CopyValuesInternalImpl@?$TProperty@UFSparseDelegate@Unreal@RC@@VFMulticastDelegateProperty@23@@Unreal@RC@@IEAAXPEAXPEBXH@Z
    ?CopyValuesInternalImpl@?$TProperty@UFWeakObjectPtr@Unreal@RC@@VFObjectPropertyBase@23@@Unreal@RC@@IEAAXPEAXPEBXH@Z
    ?CopyValuesInternalImpl@?$TProperty@V?$TMulticastScriptDelegate@UFWeakObjectPtr@Unreal@RC@@@Unreal@RC@@VFMulticastDelegateProperty@23@@Unreal@RC@@IEAAXPEAXPEBXH@Z
    ?CopyValuesInternalImpl@?$TProperty@V?$TScriptDelegate@UFWeakObjectPtr@Unreal@RC@@@Unreal@RC@@VFProperty@23@@Unreal@RC@@IEAAXPEAXPEBXH@Z
    ?CopyValuesInternalImpl@?$TProperty@VFAnsiString@Unreal@RC@@VFProperty@23@@Unreal@RC@@IEAAXPEAXPEBXH@Z
    ?CopyValuesInternalImpl@?$TProperty@VFName@Unreal@RC@@VFProperty@23@@Unreal@RC@@IEAAXPEAXPEBXH@Z
    ?CopyValuesInternalImpl@?$TProperty@VFScriptInterface@Unreal@RC@@VFProperty@23@@Unreal@RC@@IEAAXPEAXPEBXH@Z
    ?CopyValuesInternalImpl@?$TProperty@VFScriptMap@Unreal@RC@@VFProperty@23@@Unreal@RC@@IEAAXPEAXPEBXH@Z
    ?CopyValuesInternalImpl@?$TProperty@VFScriptSet@Unreal@RC@@VFProperty@23@@Unreal@RC@@IEAAXPEAXPEBXH@Z
    ?CopyValuesInternalImpl@?$TProperty@VFString@Unreal@RC@@VFProperty@23@@Unreal@RC@@IEAAXPEAXPEBXH@Z
    ?CopyValuesInternalImpl@?$TProperty@VFText@Unreal@RC@@VFProperty@23@@Unreal@RC@@IEAAXPEAXPEBXH@Z
    ?CopyValuesInternalImpl@?$TProperty@VFUtf8String@Unreal@RC@@VFProperty@23@@Unreal@RC@@IEAAXPEAXPEBXH@Z
    ?CopyValuesInternalImpl@?$TProperty@_JVFNumericProperty@Unreal@RC@@@Unreal@RC@@IEAAXPEAXPEBXH@Z
    ?CopyValuesInternalImpl@?$TProperty@_KVFNumericProperty@Unreal@RC@@@Unreal@RC@@IEAAXPEAXPEBXH@Z
    ?CopyValuesToScriptVMInternal@FProperty@Unreal@RC@@QEAAXPEAXPEBXH@Z
    ?CopyValuesToScriptVMInternal_Impl@FProperty@Unreal@RC@@IEAAXPEAXPEBXH@Z
    ?CreateCluster@UObjectBaseUtility@Unreal@RC@@QEAAXXZ
    ?CreateDefaultObject@UClass@Unreal@RC@@QEAAPEAVUObject@23@XZ
    ?CurrentNativeFunction@FFrame@Unreal@RC@@QEAAAEAPEAVUFunction@23@XZ
    ?CustomFindProperty@UStruct@Unreal@RC@@QEBAPEAVFProperty@23@VFName@23@@Z
    ?DebugBuild@Version@Unreal@RC@@2_NA
    ?DeferredRegister@UObjectBase@Unreal@RC@@QEAAXPEAVUClass@23@PEB_W1@Z
    ?DestroyAndFreeValue@FProperty@Unreal@RC@@QEAAXPEAX@Z
    ?DestroyPropertyValue@?$TPropertyTypeFundamentals@C@Unreal@RC@@SAXPEAX@Z
    ?DestroyPropertyValue@?$TPropertyTypeFundamentals@E@Unreal@RC@@SAXPEAX@Z
    ?DestroyPropertyValue@?$TPropertyTypeFundamentals@F@Unreal@RC@@SAXPEAX@Z
    ?DestroyPropertyValue@?$TPropertyTypeFundamentals@G@Unreal@RC@@SAXPEAX@Z
    ?DestroyPropertyValue@?$TPropertyTypeFundamentals@H@Unreal@RC@@SAXPEAX@Z
    ?DestroyPropertyValue@?$TPropertyTypeFundamentals@I@Unreal@RC@@SAXPEAX@Z
    ?DestroyPropertyValue@?$TPropertyTypeFundamentals@M@Unreal@RC@@SAXPEAX@Z
    ?DestroyPropertyValue@?$TPropertyTypeFundamentals@N@Unreal@RC@@SAXPEAX@Z
    ?DestroyPropertyValue@?$TPropertyTypeFundamentals@PEAVUObject@Unreal@RC@@@Unreal@RC@@SAXPEAX@Z
    ?DestroyPropertyValue@?$TPropertyTypeFundamentals@UFFieldPath@Unreal@RC@@@Unreal@RC@@SAXPEAX@Z
    ?DestroyPropertyValue@?$TPropertyTypeFundamentals@UFLazyObjectPtr@Unreal@RC@@@Unreal@RC@@SAXPEAX@Z
    ?DestroyPropertyValue@?$TPropertyTypeFundamentals@UFSoftObjectPtr@Unreal@RC@@@Unreal@RC@@SAXPEAX@Z
    ?DestroyPropertyValue@?$TPropertyTypeFundamentals@UFSparseDelegate@Unreal@RC@@@Unreal@RC@@SAXPEAX@Z
    ?DestroyPropertyValue@?$TPropertyTypeFundamentals@UFWeakObjectPtr@Unreal@RC@@@Unreal@RC@@SAXPEAX@Z
    ?DestroyPropertyValue@?$TPropertyTypeFundamentals@V?$TMulticastScriptDelegate@UFWeakObjectPtr@Unreal@RC@@@Unreal@RC@@@Unreal@RC@@SAXPEAX@Z
    ?DestroyPropertyValue@?$TPropertyTypeFundamentals@V?$TScriptDelegate@UFWeakObjectPtr@Unreal@RC@@@Unreal@RC@@@Unreal@RC@@SAXPEAX@Z
    ?DestroyPropertyValue@?$TPropertyTypeFundamentals@VFAnsiString@Unreal@RC@@@Unreal@RC@@SAXPEAX@Z
    ?DestroyPropertyValue@?$TPropertyTypeFundamentals@VFName@Unreal@RC@@@Unreal@RC@@SAXPEAX@Z
    ?DestroyPropertyValue@?$TPropertyTypeFundamentals@VFScriptInterface@Unreal@RC@@@Unreal@RC@@SAXPEAX@Z
    ?DestroyPropertyValue@?$TPropertyTypeFundamentals@VFScriptMap@Unreal@RC@@@Unreal@RC@@SAXPEAX@Z
    ?DestroyPropertyValue@?$TPropertyTypeFundamentals@VFScriptSet@Unreal@RC@@@Unreal@RC@@SAXPEAX@Z
    ?DestroyPropertyValue@?$TPropertyTypeFundamentals@VFString@Unreal@RC@@@Unreal@RC@@SAXPEAX@Z
    ?DestroyPropertyValue@?$TPropertyTypeFundamentals@VFText@Unreal@RC@@@Unreal@RC@@SAXPEAX@Z
    ?DestroyPropertyValue@?$TPropertyTypeFundamentals@VFUtf8String@Unreal@RC@@@Unreal@RC@@SAXPEAX@Z
    ?DestroyPropertyValue@?$TPropertyTypeFundamentals@_J@Unreal@RC@@SAXPEAX@Z
    ?DestroyPropertyValue@?$TPropertyTypeFundamentals@_K@Unreal@RC@@SAXPEAX@Z
    ?DestroyStruct@UStruct@Unreal@RC@@QEBAXPEAXH@Z
    ?DestroyValue@FProperty@Unreal@RC@@QEAAXPEAX@Z
    ?DestroyValue@FProperty@Unreal@RC@@QEBAXPEAX@Z
    ?DestroyValueImpl@?$TProperty@CVFNumericProperty@Unreal@RC@@@Unreal@RC@@IEAAXPEAX@Z
    ?DestroyValueImpl@?$TProperty@EVFNumericProperty@Unreal@RC@@@Unreal@RC@@IEAAXPEAX@Z
    ?DestroyValueImpl@?$TProperty@FVFNumericProperty@Unreal@RC@@@Unreal@RC@@IEAAXPEAX@Z
    ?DestroyValueImpl@?$TProperty@GVFNumericProperty@Unreal@RC@@@Unreal@RC@@IEAAXPEAX@Z
    ?DestroyValueImpl@?$TProperty@HVFNumericProperty@Unreal@RC@@@Unreal@RC@@IEAAXPEAX@Z
    ?DestroyValueImpl@?$TProperty@IVFNumericProperty@Unreal@RC@@@Unreal@RC@@IEAAXPEAX@Z
    ?DestroyValueImpl@?$TProperty@MVFNumericProperty@Unreal@RC@@@Unreal@RC@@IEAAXPEAX@Z
    ?DestroyValueImpl@?$TProperty@NVFNumericProperty@Unreal@RC@@@Unreal@RC@@IEAAXPEAX@Z
    ?DestroyValueImpl@?$TProperty@PEAVUObject@Unreal@RC@@VFObjectPropertyBase@23@@Unreal@RC@@IEAAXPEAX@Z
    ?DestroyValueImpl@?$TProperty@UFFieldPath@Unreal@RC@@VFProperty@23@@Unreal@RC@@IEAAXPEAX@Z
    ?DestroyValueImpl@?$TProperty@UFLazyObjectPtr@Unreal@RC@@VFObjectPropertyBase@23@@Unreal@RC@@IEAAXPEAX@Z
    ?DestroyValueImpl@?$TProperty@UFSoftObjectPtr@Unreal@RC@@VFObjectPropertyBase@23@@Unreal@RC@@IEAAXPEAX@Z
    ?DestroyValueImpl@?$TProperty@UFSparseDelegate@Unreal@RC@@VFMulticastDelegateProperty@23@@Unreal@RC@@IEAAXPEAX@Z
    ?DestroyValueImpl@?$TProperty@UFWeakObjectPtr@Unreal@RC@@VFObjectPropertyBase@23@@Unreal@RC@@IEAAXPEAX@Z
    ?DestroyValueImpl@?$TProperty@V?$TMulticastScriptDelegate@UFWeakObjectPtr@Unreal@RC@@@Unreal@RC@@VFMulticastDelegateProperty@23@@Unreal@RC@@IEAAXPEAX@Z
    ?DestroyValueImpl@?$TProperty@V?$TScriptDelegate@UFWeakObjectPtr@Unreal@RC@@@Unreal@RC@@VFProperty@23@@Unreal@RC@@IEAAXPEAX@Z
    ?DestroyValueImpl@?$TProperty@VFAnsiString@Unreal@RC@@VFProperty@23@@Unreal@RC@@IEAAXPEAX@Z
    ?DestroyValueImpl@?$TProperty@VFName@Unreal@RC@@VFProperty@23@@Unreal@RC@@IEAAXPEAX@Z
    ?DestroyValueImpl@?$TProperty@VFScriptInterface@Unreal@RC@@VFProperty@23@@Unreal@RC@@IEAAXPEAX@Z
    ?DestroyValueImpl@?$TProperty@VFScriptMap@Unreal@RC@@VFProperty@23@@Unreal@RC@@IEAAXPEAX@Z
    ?DestroyValueImpl@?$TProperty@VFScriptSet@Unreal@RC@@VFProperty@23@@Unreal@RC@@IEAAXPEAX@Z
    ?DestroyValueImpl@?$TProperty@VFString@Unreal@RC@@VFProperty@23@@Unreal@RC@@IEAAXPEAX@Z
    ?DestroyValueImpl@?$TProperty@VFText@Unreal@RC@@VFProperty@23@@Unreal@RC@@IEAAXPEAX@Z
    ?DestroyValueImpl@?$TProperty@VFUtf8String@Unreal@RC@@VFProperty@23@@Unreal@RC@@IEAAXPEAX@Z
    ?DestroyValueImpl@?$TProperty@_JVFNumericProperty@Unreal@RC@@@Unreal@RC@@IEAAXPEAX@Z
    ?DestroyValueImpl@?$TProperty@_KVFNumericProperty@Unreal@RC@@@Unreal@RC@@IEAAXPEAX@Z
    ?DestroyValueInternal@FProperty@Unreal@RC@@QEBAXPEAX@Z
    ?DestroyValue_InContainer@FProperty@Unreal@RC@@QEAAXPEAX@Z
    ?Destruct@ICppStructOps@UScriptStruct@Unreal@RC@@QEAAXPEAX@Z
    ?Dump@FOutputDevice@Unreal@RC@@QEAAXAEAVFArchive@23@@Z
    ?DumpAllocatorStats@FMalloc@Unreal@RC@@QEAAXAEAVFOutputDevice@23@@Z
    ?EXECUTOR_MASK@FCallbackMetadata@Internal@Hook@Unreal@RC@@2_KB
    ?EditNameAt@UEnum@Unreal@RC@@QEAAXHVFName@23@@Z
    ?EditValueAt@UEnum@Unreal@RC@@QEAAXH_J@Z
    ?EmitIntrusiveOptionalReferenceInfo@FProperty@Unreal@RC@@QEAAXAEAVFSchemaBuilder@GC@UE@23@HAEAV?$TArray@PEBVFStructProperty@Unreal@RC@@V?$TSizedDefaultAllocator@$0CA@@23@@23@AEAVFPropertyStack@5623@@Z
    ?EmitReferenceInfo@FProperty@Unreal@RC@@QEAAXAEAVFSchemaBuilder@GC@UE@23@HAEAVFPropertyStack@5623@@Z
    ?EmitReferenceInfo@FProperty@Unreal@RC@@QEAAXAEAVUClass@23@HAEAV?$TArray@PEBVFStructProperty@Unreal@RC@@V?$TSizedDefaultAllocator@$0CA@@23@@23@@Z
    ?Empty@?$TStringBase@D@Unreal@RC@@QEAAXH@Z
    ?Empty@?$TStringBase@D@Unreal@RC@@QEAAXXZ
    ?Empty@?$TStringBase@_Q@Unreal@RC@@QEAAXH@Z
    ?Empty@?$TStringBase@_Q@Unreal@RC@@QEAAXXZ
    ?Empty@?$TStringBase@_W@Unreal@RC@@QEAAXH@Z
    ?Empty@?$TStringBase@_W@Unreal@RC@@QEAAXXZ
    ?EmptyTable@UDataTable@Unreal@RC@@QEAAXXZ
    ?EndExecution@FCallbackMetadata@Internal@Hook@Unreal@RC@@QEAAXXZ
    ?EndPlayInternal@AActor@Unreal@RC@@2V?$Function@$$A6AXPEAVAActor@Unreal@RC@@W4EEndPlayReason@23@@Z@3@A
    ?EndsWith@?$TStringBase@D@Unreal@RC@@QEBA_NAEBV123@W4Type@ESearchCase@23@@Z
    ?EndsWith@?$TStringBase@D@Unreal@RC@@QEBA_NPEBDW4Type@ESearchCase@23@@Z
    ?EndsWith@?$TStringBase@_Q@Unreal@RC@@QEBA_NAEBV123@W4Type@ESearchCase@23@@Z
    ?EndsWith@?$TStringBase@_Q@Unreal@RC@@QEBA_NPEB_QW4Type@ESearchCase@23@@Z
    ?EndsWith@?$TStringBase@_W@Unreal@RC@@QEBA_NAEBV123@W4Type@ESearchCase@23@@Z
    ?EndsWith@?$TStringBase@_W@Unreal@RC@@QEBA_NPEB_WW4Type@ESearchCase@23@@Z
    ?Equals@?$TStringBase@D@Unreal@RC@@QEBA_NAEBV123@W4Type@ESearchCase@23@@Z
    ?Equals@?$TStringBase@_Q@Unreal@RC@@QEBA_NAEBV123@W4Type@ESearchCase@23@@Z
    ?Equals@?$TStringBase@_W@Unreal@RC@@QEBA_NAEBV123@W4Type@ESearchCase@23@@Z
    ?Equals@FName@Unreal@RC@@QEBA_NAEBV123@@Z
    ?ExecInternal@ULocalPlayer@Unreal@RC@@2V?$Function@$$A6A_NPEAVULocalPlayer@Unreal@RC@@PEAVUWorld@23@PEB_WAEAVFOutputDevice@23@@Z@3@A
    ?ExportCustomProperties@UObject@Unreal@RC@@QEAAXAEAVFOutputDevice@23@I@Z
    ?ExportTextItem@FProperty@Unreal@RC@@QEAAXAEAVFString@23@PEBX1PEAVUObject@23@H2@Z
    ?ExportTextItem_Direct@FProperty@Unreal@RC@@QEBAXAEAVFString@23@PEBX1PEAVUObject@23@H2@Z
    ?ExportTextItem_InContainer@FProperty@Unreal@RC@@QEBAXAEAVFString@23@PEBX1PEAVUObject@23@H2@Z
    ?ExportText_Direct@FProperty@Unreal@RC@@QEAA_NAEAVFString@23@PEBX1PEAVUObject@23@H2@Z
    ?ExportText_InContainer@FProperty@Unreal@RC@@QEAA_NHAEAVFString@23@PEBX1PEAVUObject@23@H2@Z
    ?ExportText_Internal@FProperty@Unreal@RC@@QEBAXAEAVFString@23@PEBXW4EPropertyPointerType@23@1PEAVUObject@23@H3@Z
    ?FAssetDataAssumedStaticSize@FAssetData@Unreal@RC@@2HB
    ?FFieldClassOffset@TypeChecker@Unreal@RC@@0HB
    ?Find@?$TStringBase@D@Unreal@RC@@QEBAHAEBV123@W4Type@ESearchCase@23@W44ESearchDir@23@H@Z
    ?Find@?$TStringBase@D@Unreal@RC@@QEBAHPEBDW4Type@ESearchCase@23@W44ESearchDir@23@H@Z
    ?Find@?$TStringBase@_Q@Unreal@RC@@QEBAHAEBV123@W4Type@ESearchCase@23@W44ESearchDir@23@H@Z
    ?Find@?$TStringBase@_Q@Unreal@RC@@QEBAHPEB_QW4Type@ESearchCase@23@W44ESearchDir@23@H@Z
    ?Find@?$TStringBase@_W@Unreal@RC@@QEBAHAEBV123@W4Type@ESearchCase@23@W44ESearchDir@23@H@Z
    ?Find@?$TStringBase@_W@Unreal@RC@@QEBAHPEB_WW4Type@ESearchCase@23@W44ESearchDir@23@H@Z
    ?FindAllOf@UObjectGlobals@Unreal@RC@@YAXAEBV?$basic_string@DU?$char_traits@D@std@@V?$allocator@D@2@@std@@AEAV?$vector@PEAVUObject@Unreal@RC@@V?$allocator@PEAVUObject@Unreal@RC@@@std@@@5@@Z
    ?FindAllOf@UObjectGlobals@Unreal@RC@@YAXAEBV?$basic_string@_WU?$char_traits@_W@std@@V?$allocator@_W@2@@std@@AEAV?$vector@PEAVUObject@Unreal@RC@@V?$allocator@PEAVUObject@Unreal@RC@@@std@@@5@@Z
    ?FindAllOf@UObjectGlobals@Unreal@RC@@YAXPEB_WAEAV?$vector@PEAVUObject@Unreal@RC@@V?$allocator@PEAVUObject@Unreal@RC@@@std@@@std@@@Z
    ?FindAllOf@UObjectGlobals@Unreal@RC@@YAXV?$basic_string_view@DU?$char_traits@D@std@@@std@@AEAV?$vector@PEAVUObject@Unreal@RC@@V?$allocator@PEAVUObject@Unreal@RC@@@std@@@5@@Z
    ?FindAllOf@UObjectGlobals@Unreal@RC@@YAXV?$basic_string_view@_WU?$char_traits@_W@std@@@std@@AEAV?$vector@PEAVUObject@Unreal@RC@@V?$allocator@PEAVUObject@Unreal@RC@@@std@@@5@@Z
    ?FindAllOf@UObjectGlobals@Unreal@RC@@YAXVFName@23@AEAV?$vector@PEAVUObject@Unreal@RC@@V?$allocator@PEAVUObject@Unreal@RC@@@std@@@std@@@Z
    ?FindChar@?$TStringBase@D@Unreal@RC@@QEBA_NDAEAH@Z
    ?FindChar@?$TStringBase@_Q@Unreal@RC@@QEBA_N_QAEAH@Z
    ?FindChar@?$TStringBase@_W@Unreal@RC@@QEBA_N_WAEAH@Z
    ?FindFirstOf@UObjectGlobals@Unreal@RC@@YAPEAVUObject@23@AEBV?$basic_string@DU?$char_traits@D@std@@V?$allocator@D@2@@std@@@Z
    ?FindFirstOf@UObjectGlobals@Unreal@RC@@YAPEAVUObject@23@AEBV?$basic_string@_WU?$char_traits@_W@std@@V?$allocator@_W@2@@std@@@Z
    ?FindFirstOf@UObjectGlobals@Unreal@RC@@YAPEAVUObject@23@PEB_W@Z
    ?FindFirstOf@UObjectGlobals@Unreal@RC@@YAPEAVUObject@23@V?$basic_string_view@DU?$char_traits@D@std@@@std@@@Z
    ?FindFirstOf@UObjectGlobals@Unreal@RC@@YAPEAVUObject@23@V?$basic_string_view@_WU?$char_traits@_W@std@@@std@@@Z
    ?FindFirstOf@UObjectGlobals@Unreal@RC@@YAPEAVUObject@23@VFName@23@@Z
    ?FindLastChar@?$TStringBase@D@Unreal@RC@@QEBA_NDAEAH@Z
    ?FindLastChar@?$TStringBase@_Q@Unreal@RC@@QEBA_N_QAEAH@Z
    ?FindLastChar@?$TStringBase@_W@Unreal@RC@@QEBA_N_WAEAH@Z
    ?FindNearestActor@UGameplayStatics@Unreal@RC@@SAPEAVAActor@23@UFVector@23@AEBV?$vector@PEAVAActor@Unreal@RC@@V?$allocator@PEAVAActor@Unreal@RC@@@std@@@std@@AEAM@Z
    ?FindObject@UObjectGlobals@Unreal@RC@@YAPEAVUObject@23@AEAUObjectSearcher@23@PEAVUClass@23@PEAV423@PEB_W_N@Z
    ?FindObject@UObjectGlobals@Unreal@RC@@YAPEAVUObject@23@AEAUObjectSearcher@23@PEAVUClass@23@PEAV423@V?$basic_string_view@_WU?$char_traits@_W@std@@@std@@_N@Z
    ?FindObject@UObjectGlobals@Unreal@RC@@YAPEAVUObject@23@PEAVUClass@23@PEAV423@PEB_W_NPEAUObjectSearcher@23@@Z
    ?FindObject@UObjectGlobals@Unreal@RC@@YAPEAVUObject@23@PEAVUClass@23@PEAV423@V?$basic_string_view@_WU?$char_traits@_W@std@@@std@@_NPEAUObjectSearcher@23@@Z
    ?FindObject@UObjectGlobals@Unreal@RC@@YAPEAVUObject@23@PEB_W0HH@Z
    ?FindObject@UObjectGlobals@Unreal@RC@@YAPEAVUObject@23@VFName@23@0HH@Z
    ?FindObjects@UObjectGlobals@Unreal@RC@@YAXPEB_W0AEAV?$vector@PEAVUObject@Unreal@RC@@V?$allocator@PEAVUObject@Unreal@RC@@@std@@@std@@HH_N@Z
    ?FindObjects@UObjectGlobals@Unreal@RC@@YAXVFName@23@0AEAV?$vector@PEAVUObject@Unreal@RC@@V?$allocator@PEAVUObject@Unreal@RC@@@std@@@std@@HH_N@Z
    ?FindObjects@UObjectGlobals@Unreal@RC@@YAX_KPEB_W1AEAV?$vector@PEAVUObject@Unreal@RC@@V?$allocator@PEAVUObject@Unreal@RC@@@std@@@std@@HH_N@Z
    ?FindObjects@UObjectGlobals@Unreal@RC@@YAX_KVFName@23@1AEAV?$vector@PEAVUObject@Unreal@RC@@V?$allocator@PEAVUObject@Unreal@RC@@@std@@@std@@HH_N@Z
    ?FindOutParamValueAddress@Unreal@RC@@YAPEAXAEAUFFrame@12@PEAVFProperty@12@@Z
    ?FindProperty@UStruct@Unreal@RC@@QEAAPEAVFProperty@23@VFName@23@@Z
    ?FindPropertyGuidFromName@UStruct@Unreal@RC@@QEBA?AUFGuid@23@VFName@23@@Z
    ?FindPropertyNameFromGuid@UStruct@Unreal@RC@@QEBA?AVFName@23@AEBUFGuid@23@@Z
    ?FindRowUnchecked@UDataTable@Unreal@RC@@QEBAPEAEVFName@23@@Z
    ?FinishDestroy@UObject@Unreal@RC@@QEAAXXZ
    ?FinishSpawningActor@UGameplayStatics@Unreal@RC@@SAPEAVAActor@23@PEAV423@AEBUFTransform@23@@Z
    ?FirePostCallbacks@UnrealScriptFunctionData@Unreal@RC@@QEAAXAEAVUnrealScriptFunctionCallableContext@23@@Z
    ?FirePreCallbacks@UnrealScriptFunctionData@Unreal@RC@@QEAAXAEAVUnrealScriptFunctionCallableContext@23@@Z
    ?FlowStack@FFrame@Unreal@RC@@QEAAPEAEXZ
    ?Flush@FOutputDevice@Unreal@RC@@QEAAXXZ
    ?ForEachFunction@UStruct@Unreal@RC@@QEAA?AU?$TFieldRange@VUFunction@Unreal@RC@@@23@XZ
    ?ForEachFunctionInChain@UStruct@Unreal@RC@@QEAA?AU?$TFieldRange@VUFunction@Unreal@RC@@@23@XZ
    ?ForEachName@UEnum@Unreal@RC@@QEAA?AU?$Generator@U?$TTuple@VFName@Unreal@RC@@_J@Unreal@RC@@@3@XZ
    ?ForEachProperty@UStruct@Unreal@RC@@QEAA?AU?$TFieldRange@VFProperty@Unreal@RC@@@23@XZ
    ?ForEachPropertyInChain@UStruct@Unreal@RC@@QEAA?AU?$TFieldRange@VFProperty@Unreal@RC@@@23@XZ
    ?ForEachSuperStruct@UStruct@Unreal@RC@@QEAA?AUTSuperStructRange@23@XZ
    ?ForEachUObject@UObjectGlobals@Unreal@RC@@YAXAEBV?$function@$$A6A?AW4LoopAction@RC@@PEAVUObject@Unreal@2@HH@Z@std@@@Z
    ?ForEachUObjectInChunk@UObjectGlobals@Unreal@RC@@YAXHAEBV?$function@$$A6A?AW4LoopAction@RC@@PEAVUObject@Unreal@2@H@Z@std@@@Z
    ?ForEachUObjectInRange@UObjectGlobals@Unreal@RC@@YAXHHAEBV?$function@$$A6A?AW4LoopAction@RC@@PEAVUObject@Unreal@2@HH@Z@std@@@Z
    ?Free@FMalloc@Unreal@RC@@QEAAXPEAX@Z
    ?Free@FMemory@Unreal@RC@@SAXPEAX@Z
    ?FreeAllForcefullyLoadedAssets@UAssetRegistry@Unreal@RC@@SAXXZ
    ?FreeExternal@FMemory@Unreal@RC@@CAXPEAX@Z
    ?FromInt@FString@Unreal@RC@@SA?AV123@H@Z
    ?GFunctionName@Unreal@RC@@3VFName@12@A
    ?GLevelName@Unreal@RC@@3VFName@12@A
    ?GMalloc@Unreal@RC@@3PEAPEAVFMalloc@12@EA
    ?GNatives_Internal@Unreal@RC@@3PEAP6AXPEAVUObject@12@AEAUFFrame@12@PEAX@ZEA
    ?GPackageName@Unreal@RC@@3VFName@12@A
    ?GPropertyName@Unreal@RC@@3VFName@12@A
    ?GUObjectArray@Unreal@RC@@3PEAVFUObjectArray@12@EA
    ?GWorldName@Unreal@RC@@3VFName@12@A
    ?GenerateEnumPrefix@UEnum@Unreal@RC@@QEAA?AV?$basic_string@_WU?$char_traits@_W@std@@V?$allocator@_W@2@@std@@XZ
    ?Get@FWeakObjectPtr@Unreal@RC@@QEBAPEAVUObject@23@XZ
    ?Get@FWeakObjectPtr@Unreal@RC@@QEBAPEAVUObject@23@_N@Z
    ?GetA@FGuid@Unreal@RC@@QEAAIXZ
    ?GetActiveLevelCollectionIndex@UWorld@Unreal@RC@@QEAAAEAHXZ
    ?GetActiveLevelCollectionIndex@UWorld@Unreal@RC@@QEBAAEBHXZ
    ?GetActorEnableCollision@AActor@Unreal@RC@@QEAA_NXZ
    ?GetActorForwardVector@AActor@Unreal@RC@@QEAA?AUFVector@23@XZ
    ?GetActorScale3D@AActor@Unreal@RC@@QEAA?AUFVector@23@XZ
    ?GetActorTickInterval@AActor@Unreal@RC@@QEAAMXZ
    ?GetActorTimeDilation@AActor@Unreal@RC@@QEAAMXZ
    ?GetAlignment@ICppStructOps@UScriptStruct@Unreal@RC@@QEAAAEBHXZ
    ?GetAlignment@ICppStructOps@UScriptStruct@Unreal@RC@@QEBAAEBHXZ
    ?GetAllActorsOfClass@UGameplayStatics@Unreal@RC@@SAXPEBVUObject@23@PEAVUClass@23@AEAV?$TArray@PEAVAActor@Unreal@RC@@V?$TSizedDefaultAllocator@$0CA@@23@@23@@Z
    ?GetAllActorsOfClass@UGameplayStatics@Unreal@RC@@SAXPEBVUObject@23@PEAVUClass@23@AEAV?$vector@PEAVAActor@Unreal@RC@@V?$allocator@PEAVAActor@Unreal@RC@@@std@@@std@@@Z
    ?GetAllAssets@UAssetRegistry@Unreal@RC@@QEAA_NAEAV?$TArray@UFAssetData@Unreal@RC@@V?$TSizedDefaultAllocator@$0CA@@23@@23@_N@Z
    ?GetAllFieldClasses@FFieldClass@Unreal@RC@@SAAEAV?$TArray@PEAVFFieldClass@Unreal@RC@@V?$TSizedDefaultAllocator@$0CA@@23@@23@XZ
    ?GetAllFunctionsCache@UClass@Unreal@RC@@QEAAAEAV?$TMap@VFName@Unreal@RC@@PEAVUFunction@23@VFDefaultSetAllocator@23@U?$TDefaultMapHashableKeyFuncs@VFName@Unreal@RC@@PEAVUFunction@23@$0A@@23@@23@XZ
    ?GetAllFunctionsCache@UClass@Unreal@RC@@QEBAAEBV?$TMap@VFName@Unreal@RC@@PEAVUFunction@23@VFDefaultSetAllocator@23@U?$TDefaultMapHashableKeyFuncs@VFName@Unreal@RC@@PEAVUFunction@23@$0A@@23@@23@XZ
    ?GetAllFunctionsCacheLock@UClass@Unreal@RC@@QEAAAEAVFPlatformRWLock@UE@23@XZ
    ?GetAllFunctionsCacheLock@UClass@Unreal@RC@@QEBAAEBVFPlatformRWLock@UE@23@XZ
    ?GetAllocSize@FMemory@Unreal@RC@@SA_KPEAX@Z
    ?GetAllocSizeExternal@FMemory@Unreal@RC@@CA_KPEAX@Z
    ?GetAllocatedSize@FMemoryImageAllocatorBase@Unreal@RC@@QEBA_KH_K@Z
    ?GetAllocation@FMemoryImageAllocatorBase@Unreal@RC@@QEBAPEAUFScriptContainerElement@23@XZ
    ?GetAllocationSize@FMalloc@Unreal@RC@@QEAA_NPEAXAEA_K@Z
    ?GetAllocatorStats@FMalloc@Unreal@RC@@QEAAXAEAUFGenericMemoryStats@23@@Z
    ?GetArrayDim@FProperty@Unreal@RC@@QEAAAEAHXZ
    ?GetArrayDim@FProperty@Unreal@RC@@QEBAAEBHXZ
    ?GetArrayFlags@FArrayProperty@Unreal@RC@@QEAAAEAW4EArrayPropertyFlags@23@XZ
    ?GetArrayFlags@FArrayProperty@Unreal@RC@@QEBAAEBW4EArrayPropertyFlags@23@XZ
    ?GetAspectRatioAxisConstraint@ULocalPlayer@Unreal@RC@@QEAAAEAV?$TEnumAsByte@W4EAspectRatioAxisConstraint@Unreal@RC@@@23@XZ
    ?GetAspectRatioAxisConstraint@ULocalPlayer@Unreal@RC@@QEBAAEBV?$TEnumAsByte@W4EAspectRatioAxisConstraint@Unreal@RC@@@23@XZ
    ?GetAsset@UAssetRegistryHelpers@Unreal@RC@@SAPEAVUObject@23@AEAUFAssetData@23@@Z
    ?GetAssetByObjectPath@UAssetRegistry@Unreal@RC@@QEAA?AUFAssetData@23@VFName@23@_N@Z
    ?GetAssetRegistry@UAssetRegistryHelpers@Unreal@RC@@SA?AVFScriptInterface@23@XZ
    ?GetAssetRegistryTags@UObject@Unreal@RC@@QEBAXAEAV?$TArray@PEAXV?$TSizedDefaultAllocator@$0CA@@Unreal@RC@@@23@@Z
    ?GetAssetsByClass@UAssetRegistry@Unreal@RC@@QEAA_NVFName@23@AEAV?$TArray@UFAssetData@Unreal@RC@@V?$TSizedDefaultAllocator@$0CA@@23@@23@_N@Z
    ?GetAsyncPreRegisterLevelStreamingTasks@UWorld@Unreal@RC@@QEAAAEAVFThreadSafeCounter@23@XZ
    ?GetAsyncPreRegisterLevelStreamingTasks@UWorld@Unreal@RC@@QEBAAEBVFThreadSafeCounter@23@XZ
    ?GetAudioDeviceHandle@FWorldContext@Unreal@RC@@QEAAAEAIXZ
    ?GetAudioDeviceHandle@FWorldContext@Unreal@RC@@QEBAAEBIXZ
    ?GetAudioDeviceHandle@UWorld@Unreal@RC@@QEAAAEAIXZ
    ?GetAudioDeviceHandle@UWorld@Unreal@RC@@QEBAAEBIXZ
    ?GetAudioDeviceID@FWorldContext@Unreal@RC@@QEAAAEAIXZ
    ?GetAudioDeviceID@FWorldContext@Unreal@RC@@QEBAAEBIXZ
    ?GetAudioTimeSeconds501@UWorld@Unreal@RC@@AEAAAEANXZ
    ?GetAudioTimeSeconds501@UWorld@Unreal@RC@@AEBAAEBNXZ
    ?GetAudioTimeSecondsBase@UWorld@Unreal@RC@@AEAAAEAMXZ
    ?GetAudioTimeSecondsBase@UWorld@Unreal@RC@@AEBAAEBMXZ
    ?GetAuthoredNameForField@UStruct@Unreal@RC@@QEBA?AVFString@23@PEBVUField@23@@Z
    ?GetAuthorityGameMode@UWorld@Unreal@RC@@QEAAAEAV?$TObjectPtr@VAGameModeBase@Unreal@RC@@@23@XZ
    ?GetAuthorityGameMode@UWorld@Unreal@RC@@QEBAAEBV?$TObjectPtr@VAGameModeBase@Unreal@RC@@@23@XZ
    ?GetB@FGuid@Unreal@RC@@QEAAIXZ
    ?GetBlockTillLevelStreamingCompletedEpoch@UWorld@Unreal@RC@@QEAAAEAHXZ
    ?GetBlockTillLevelStreamingCompletedEpoch@UWorld@Unreal@RC@@QEBAAEBHXZ
    ?GetBuildConfiguration@UKismetSystemLibrary@Unreal@RC@@SA?AVFString@23@XZ
    ?GetBuildStreamingDataTimer@UWorld@Unreal@RC@@QEAAAEANXZ
    ?GetBuildStreamingDataTimer@UWorld@Unreal@RC@@QEBAAEBNXZ
    ?GetByteMask@FBoolProperty@Unreal@RC@@QEAAAEAEXZ
    ?GetByteMask@FBoolProperty@Unreal@RC@@QEBAAEBEXZ
    ?GetByteOffset@FBoolProperty@Unreal@RC@@QEAAAEAEXZ
    ?GetByteOffset@FBoolProperty@Unreal@RC@@QEBAAEBEXZ
    ?GetC@FGuid@Unreal@RC@@QEAAIXZ
    ?GetCPPMacroType@FProperty@Unreal@RC@@QEBA?AVFString@23@AEAV423@@Z
    ?GetCPPType@FProperty@Unreal@RC@@QEBA?AVFString@23@PEAV423@I@Z
    ?GetCPPTypeCustom@FObjectPropertyBase@Unreal@RC@@QEBA?AVFString@23@PEAV423@IAEBV423@@Z
    ?GetCPPTypeForwardDeclaration@FProperty@Unreal@RC@@QEBA?AVFString@23@XZ
    ?GetCallbackData@UnrealScriptFunctionData@Unreal@RC@@QEAAPEAUUnrealScriptCallbackData@23@H@Z
    ?GetCallbackId@FCallbackIterationDataCommonImpl@Internal@Hook@Unreal@RC@@QEBA_KXZ
    ?GetCallbackName@FCallbackIterationDataCommonImpl@Internal@Hook@Unreal@RC@@QEBA?AV?$basic_string_view@_WU?$char_traits@_W@std@@@std@@XZ
    ?GetCastFlags507@FFieldClass@Unreal@RC@@AEAAAEAW4EClassCastFlags@23@XZ
    ?GetCastFlags507@FFieldClass@Unreal@RC@@AEBAAEBW4EClassCastFlags@23@XZ
    ?GetCastFlags@FFieldClass@Unreal@RC@@QEBA_KXZ
    ?GetCastFlagsBase@FFieldClass@Unreal@RC@@AEAAAEA_KXZ
    ?GetCastFlagsBase@FFieldClass@Unreal@RC@@AEBAAEB_KXZ
    ?GetCharArray@?$TStringBase@D@Unreal@RC@@QEAAAEAV?$TArray@DV?$TSizedDefaultAllocator@$0CA@@Unreal@RC@@@23@XZ
    ?GetCharArray@?$TStringBase@D@Unreal@RC@@QEBAAEBV?$TArray@DV?$TSizedDefaultAllocator@$0CA@@Unreal@RC@@@23@XZ
    ?GetCharArray@?$TStringBase@_Q@Unreal@RC@@QEAAAEAV?$TArray@_QV?$TSizedDefaultAllocator@$0CA@@Unreal@RC@@@23@XZ
    ?GetCharArray@?$TStringBase@_Q@Unreal@RC@@QEBAAEBV?$TArray@_QV?$TSizedDefaultAllocator@$0CA@@Unreal@RC@@@23@XZ
    ?GetCharArray@?$TStringBase@_W@Unreal@RC@@QEAAAEAV?$TArray@_WV?$TSizedDefaultAllocator@$0CA@@Unreal@RC@@@23@XZ
    ?GetCharArray@?$TStringBase@_W@Unreal@RC@@QEBAAEBV?$TArray@_WV?$TSizedDefaultAllocator@$0CA@@Unreal@RC@@@23@XZ
    ?GetCharTArray@FString@Unreal@RC@@QEAAAEAV?$TArray@_WV?$TSizedDefaultAllocator@$0CA@@Unreal@RC@@@23@XZ
    ?GetCharTArray@FString@Unreal@RC@@QEBAAEBV?$TArray@_WV?$TSizedDefaultAllocator@$0CA@@Unreal@RC@@@23@XZ
    ?GetChildProperties@UStruct@Unreal@RC@@QEAAAEAPEAVFField@23@XZ
    ?GetChildProperties@UStruct@Unreal@RC@@QEBAAEAPEBVFField@23@XZ
    ?GetChildren@UStruct@Unreal@RC@@QEAAAEAV?$TObjectPtr@VUField@Unreal@RC@@@23@XZ
    ?GetChildren@UStruct@Unreal@RC@@QEBAAEBV?$TObjectPtr@VUField@Unreal@RC@@@23@XZ
    ?GetClass@FField@Unreal@RC@@QEAA?AVFFieldClassVariant@23@XZ
    ?GetClassAddReferencedObjects@UClass@Unreal@RC@@QEAAAEAPEAV?$function@$$A6AXPEAVUObject@Unreal@RC@@PEAX@Z@std@@XZ
    ?GetClassAddReferencedObjects@UClass@Unreal@RC@@QEBAAEAPEBV?$function@$$A6AXPEAVUObject@Unreal@RC@@PEAX@Z@std@@XZ
    ?GetClassCastFlags420@UClass@Unreal@RC@@AEAAAEAW4EClassCastFlags@23@XZ
    ?GetClassCastFlags420@UClass@Unreal@RC@@AEBAAEBW4EClassCastFlags@23@XZ
    ?GetClassCastFlags@FFieldClassVariant@Unreal@RC@@QEBA?AW4EClassCastFlags@23@XZ
    ?GetClassCastFlags@UClass@Unreal@RC@@QEAAAEA_KXZ
    ?GetClassCastFlags@UClass@Unreal@RC@@QEBAAEB_KXZ
    ?GetClassCastFlagsBase@UClass@Unreal@RC@@AEAAAEA_KXZ
    ?GetClassCastFlagsBase@UClass@Unreal@RC@@AEBAAEB_KXZ
    ?GetClassConfigName@UClass@Unreal@RC@@QEAAAEAVFName@23@XZ
    ?GetClassConfigName@UClass@Unreal@RC@@QEBAAEBVFName@23@XZ
    ?GetClassConstructor@UClass@Unreal@RC@@QEAAAEAPEAV?$function@$$A6AXPEBX@Z@std@@XZ
    ?GetClassConstructor@UClass@Unreal@RC@@QEBAAEAPEBV?$function@$$A6AXPEBX@Z@std@@XZ
    ?GetClassDefaultObject@UClass@Unreal@RC@@QEAAAEAV?$TObjectPtr@VUObject@Unreal@RC@@@23@XZ
    ?GetClassDefaultObject@UClass@Unreal@RC@@QEBAAEBV?$TObjectPtr@VUObject@Unreal@RC@@@23@XZ
    ?GetClassFlags417@UClass@Unreal@RC@@AEAAAEAW4EClassFlags@23@XZ
    ?GetClassFlags417@UClass@Unreal@RC@@AEBAAEBW4EClassFlags@23@XZ
    ?GetClassFlags@FFieldClass@Unreal@RC@@QEAAAEAW4EClassFlags@23@XZ
    ?GetClassFlags@FFieldClass@Unreal@RC@@QEBAAEBW4EClassFlags@23@XZ
    ?GetClassFlags@UClass@Unreal@RC@@QEAAAEAIXZ
    ?GetClassFlagsBase@UClass@Unreal@RC@@AEAAAEAIXZ
    ?GetClassFlagsBase@UClass@Unreal@RC@@AEBAAEBIXZ
    ?GetClassGeneratedBy@UClass@Unreal@RC@@QEAAAEAPEAVUObject@23@XZ
    ?GetClassGeneratedBy@UClass@Unreal@RC@@QEBAAEAPEBVUObject@23@XZ
    ?GetClassPrivate@FField@Unreal@RC@@AEAAAEAPEAVFFieldClass@23@XZ
    ?GetClassPrivate@FField@Unreal@RC@@AEBAAEAPEBVFFieldClass@23@XZ
    ?GetClassPrivate@UObjectBase@Unreal@RC@@QEAAAEAPEAVUClass@23@XZ
    ?GetClassPrivate@UObjectBase@Unreal@RC@@QEBAAEAPEBVUClass@23@XZ
    ?GetClassUnique418@UClass@Unreal@RC@@AEAAAEAIXZ
    ?GetClassUnique418@UClass@Unreal@RC@@AEBAAEBIXZ
    ?GetClassUniqueBase@UClass@Unreal@RC@@AEAAAEAHXZ
    ?GetClassUniqueBase@UClass@Unreal@RC@@AEBAAEBHXZ
    ?GetClassVTableHelperCtorCaller@UClass@Unreal@RC@@QEAAAEAPEAV?$function@$$A6APEAVUObject@Unreal@RC@@PEAX@Z@std@@XZ
    ?GetClassVTableHelperCtorCaller@UClass@Unreal@RC@@QEBAAEAPEBV?$function@$$A6APEAVUObject@Unreal@RC@@PEAX@Z@std@@XZ
    ?GetClassWithin@UClass@Unreal@RC@@QEAAAEAV?$TObjectPtr@VUClass@Unreal@RC@@@23@XZ
    ?GetClassWithin@UClass@Unreal@RC@@QEBAAEBV?$TObjectPtr@VUClass@Unreal@RC@@@23@XZ
    ?GetCleanupWorldTag@UWorld@Unreal@RC@@QEAAAEAIXZ
    ?GetCleanupWorldTag@UWorld@Unreal@RC@@QEBAAEBIXZ
    ?GetClusterAndFlags@FUObjectItem@Unreal@RC@@QEAAAEAHXZ
    ?GetClusterAndFlags@FUObjectItem@Unreal@RC@@QEBAAEBHXZ
    ?GetClusterIndex@FUObjectItem@Unreal@RC@@QEAAAEAHXZ
    ?GetClusterIndex@FUObjectItem@Unreal@RC@@QEBAAEBHXZ
    ?GetClusterRootIndex@FUObjectItem@Unreal@RC@@QEAAAEAHXZ
    ?GetClusterRootIndex@FUObjectItem@Unreal@RC@@QEBAAEBHXZ
    ?GetCommittedPersistentLevelName@UWorld@Unreal@RC@@QEAAAEAVFName@23@XZ
    ?GetCommittedPersistentLevelName@UWorld@Unreal@RC@@QEBAAEBVFName@23@XZ
    ?GetComparisonIndex@FName@Unreal@RC@@QEBA?AUFNameEntryId@23@XZ
    ?GetComparisonIndexInternal@FName@Unreal@RC@@QEBA?AUFNameEntryId@23@XZ
    ?GetComponentsByClass@AActor@Unreal@RC@@QEAA?AV?$TArray@PEAVUObject@Unreal@RC@@V?$TSizedDefaultAllocator@$0CA@@23@@23@PEAVUClass@23@@Z
    ?GetConfigOverridePlatform@UObject@Unreal@RC@@QEBAPEB_WXZ
    ?GetConfiguredInternetSpeed@UPlayer@Unreal@RC@@QEAAAEAHXZ
    ?GetConfiguredInternetSpeed@UPlayer@Unreal@RC@@QEBAAEBHXZ
    ?GetConfiguredLanSpeed@UPlayer@Unreal@RC@@QEAAAEAHXZ
    ?GetConfiguredLanSpeed@UPlayer@Unreal@RC@@QEBAAEBHXZ
    ?GetConnectionIdentifier@ULocalPlayer@Unreal@RC@@QEAAAEAHXZ
    ?GetConnectionIdentifier@ULocalPlayer@Unreal@RC@@QEBAAEBHXZ
    ?GetConstructFn@FFieldClass@Unreal@RC@@QEAAAEAPEAV?$function@$$A6APEAVFField@Unreal@RC@@PEBX0W4EObjectFlags@23@@Z@std@@XZ
    ?GetConstructFn@FFieldClass@Unreal@RC@@QEBAAEAPEBV?$function@$$A6APEAVFField@Unreal@RC@@PEBX0W4EObjectFlags@23@@Z@std@@XZ
    ?GetContextHandle@FWorldContext@Unreal@RC@@QEAAAEAVFName@23@XZ
    ?GetContextHandle@FWorldContext@Unreal@RC@@QEBAAEBVFName@23@XZ
    ?GetControllerId@ULocalPlayer@Unreal@RC@@QEAAAEAHXZ
    ?GetControllerId@ULocalPlayer@Unreal@RC@@QEBAAEBHXZ
    ?GetConvertedLength@Private@Core@UE@Unreal@RC@@YAHPEBDPEB_Q@Z
    ?GetConvertedLength@Private@Core@UE@Unreal@RC@@YAHPEBDPEB_QH@Z
    ?GetConvertedLength@Private@Core@UE@Unreal@RC@@YAHPEBGPEB_Q@Z
    ?GetConvertedLength@Private@Core@UE@Unreal@RC@@YAHPEBGPEB_QH@Z
    ?GetConvertedLength@Private@Core@UE@Unreal@RC@@YAHPEB_QPEBG@Z
    ?GetConvertedLength@Private@Core@UE@Unreal@RC@@YAHPEB_QPEBGH@Z
    ?GetConvertedLength@Private@Core@UE@Unreal@RC@@YAHPEB_QPEB_U@Z
    ?GetConvertedLength@Private@Core@UE@Unreal@RC@@YAHPEB_QPEB_UH@Z
    ?GetConvertedLength@Private@Core@UE@Unreal@RC@@YAHPEB_QPEB_W@Z
    ?GetConvertedLength@Private@Core@UE@Unreal@RC@@YAHPEB_QPEB_WH@Z
    ?GetConvertedLength@Private@Core@UE@Unreal@RC@@YAHPEB_WPEB_Q@Z
    ?GetConvertedLength@Private@Core@UE@Unreal@RC@@YAHPEB_WPEB_QH@Z
    ?GetCppForm@UEnum@Unreal@RC@@QEAAAEAW4ECppForm@123@XZ
    ?GetCppForm@UEnum@Unreal@RC@@QEBAAEBW4ECppForm@123@XZ
    ?GetCppStructOps@UScriptStruct@Unreal@RC@@QEAAAEAPEAUICppStructOps@123@XZ
    ?GetCppStructOps@UScriptStruct@Unreal@RC@@QEBAAEAPEBUICppStructOps@123@XZ
    ?GetCppType@UEnum@Unreal@RC@@QEAAAEAVFString@23@XZ
    ?GetCppType@UEnum@Unreal@RC@@QEBAAEBVFString@23@XZ
    ?GetCurrentCallbackInfo@FCallbackIterationDataCommonImpl@Internal@Hook@Unreal@RC@@QEBAPEAUFCallbackMetadata@2345@XZ
    ?GetCurrentID@AGameMode@Unreal@RC@@QEAAAEAHXZ
    ?GetCurrentID@AGameMode@Unreal@RC@@QEBAAEBHXZ
    ?GetCurrentNetSpeed@UPlayer@Unreal@RC@@QEAAAEAHXZ
    ?GetCurrentNetSpeed@UPlayer@Unreal@RC@@QEBAAEBHXZ
    ?GetCustomDescription@FWorldContext@Unreal@RC@@QEAAAEAVFString@23@XZ
    ?GetCustomDescription@FWorldContext@Unreal@RC@@QEBAAEBVFString@23@XZ
    ?GetD@FGuid@Unreal@RC@@QEAAIXZ
    ?GetDebugDrawTraceTag@UWorld@Unreal@RC@@QEAAAEAVFName@23@XZ
    ?GetDebugDrawTraceTag@UWorld@Unreal@RC@@QEBAAEBVFName@23@XZ
    ?GetDefaultObject@FFieldClass@Unreal@RC@@QEAAAEAPEAVFField@23@XZ
    ?GetDefaultObject@FFieldClass@Unreal@RC@@QEBAAEAPEBVFField@23@XZ
    ?GetDefaultPlayerName@AGameMode@Unreal@RC@@QEAAAEAVFText@23@XZ
    ?GetDefaultPlayerName@AGameMode@Unreal@RC@@QEBAAEBVFText@23@XZ
    ?GetDefaultPlayerName@AGameModeBase@Unreal@RC@@QEAAAEAVFText@23@XZ
    ?GetDefaultPlayerName@AGameModeBase@Unreal@RC@@QEBAAEBVFText@23@XZ
    ?GetDefaultPropertyValue@?$TPropertyTypeFundamentals@C@Unreal@RC@@SACXZ
    ?GetDefaultPropertyValue@?$TPropertyTypeFundamentals@E@Unreal@RC@@SAEXZ
    ?GetDefaultPropertyValue@?$TPropertyTypeFundamentals@F@Unreal@RC@@SAFXZ
    ?GetDefaultPropertyValue@?$TPropertyTypeFundamentals@G@Unreal@RC@@SAGXZ
    ?GetDefaultPropertyValue@?$TPropertyTypeFundamentals@H@Unreal@RC@@SAHXZ
    ?GetDefaultPropertyValue@?$TPropertyTypeFundamentals@I@Unreal@RC@@SAIXZ
    ?GetDefaultPropertyValue@?$TPropertyTypeFundamentals@M@Unreal@RC@@SAMXZ
    ?GetDefaultPropertyValue@?$TPropertyTypeFundamentals@N@Unreal@RC@@SANXZ
    ?GetDefaultPropertyValue@?$TPropertyTypeFundamentals@PEAVUObject@Unreal@RC@@@Unreal@RC@@SAPEAVUObject@23@XZ
    ?GetDefaultPropertyValue@?$TPropertyTypeFundamentals@UFFieldPath@Unreal@RC@@@Unreal@RC@@SA?AUFFieldPath@23@XZ
    ?GetDefaultPropertyValue@?$TPropertyTypeFundamentals@UFLazyObjectPtr@Unreal@RC@@@Unreal@RC@@SA?AUFLazyObjectPtr@23@XZ
    ?GetDefaultPropertyValue@?$TPropertyTypeFundamentals@UFSoftObjectPtr@Unreal@RC@@@Unreal@RC@@SA?AUFSoftObjectPtr@23@XZ
    ?GetDefaultPropertyValue@?$TPropertyTypeFundamentals@UFSparseDelegate@Unreal@RC@@@Unreal@RC@@SA?AUFSparseDelegate@23@XZ
    ?GetDefaultPropertyValue@?$TPropertyTypeFundamentals@UFWeakObjectPtr@Unreal@RC@@@Unreal@RC@@SA?AUFWeakObjectPtr@23@XZ
    ?GetDefaultPropertyValue@?$TPropertyTypeFundamentals@V?$TMulticastScriptDelegate@UFWeakObjectPtr@Unreal@RC@@@Unreal@RC@@@Unreal@RC@@SA?AV?$TMulticastScriptDelegate@UFWeakObjectPtr@Unreal@RC@@@23@XZ
    ?GetDefaultPropertyValue@?$TPropertyTypeFundamentals@V?$TScriptDelegate@UFWeakObjectPtr@Unreal@RC@@@Unreal@RC@@@Unreal@RC@@SA?AV?$TScriptDelegate@UFWeakObjectPtr@Unreal@RC@@@23@XZ
    ?GetDefaultPropertyValue@?$TPropertyTypeFundamentals@VFAnsiString@Unreal@RC@@@Unreal@RC@@SA?AVFAnsiString@23@XZ
    ?GetDefaultPropertyValue@?$TPropertyTypeFundamentals@VFName@Unreal@RC@@@Unreal@RC@@SA?AVFName@23@XZ
    ?GetDefaultPropertyValue@?$TPropertyTypeFundamentals@VFScriptInterface@Unreal@RC@@@Unreal@RC@@SA?AVFScriptInterface@23@XZ
    ?GetDefaultPropertyValue@?$TPropertyTypeFundamentals@VFScriptMap@Unreal@RC@@@Unreal@RC@@SA?AVFScriptMap@23@XZ
    ?GetDefaultPropertyValue@?$TPropertyTypeFundamentals@VFScriptSet@Unreal@RC@@@Unreal@RC@@SA?AVFScriptSet@23@XZ
    ?GetDefaultPropertyValue@?$TPropertyTypeFundamentals@VFString@Unreal@RC@@@Unreal@RC@@SA?AVFString@23@XZ
    ?GetDefaultPropertyValue@?$TPropertyTypeFundamentals@VFText@Unreal@RC@@@Unreal@RC@@SA?AVFText@23@XZ
    ?GetDefaultPropertyValue@?$TPropertyTypeFundamentals@VFUtf8String@Unreal@RC@@@Unreal@RC@@SA?AVFUtf8String@23@XZ
    ?GetDefaultPropertyValue@?$TPropertyTypeFundamentals@_J@Unreal@RC@@SA_JXZ
    ?GetDefaultPropertyValue@?$TPropertyTypeFundamentals@_K@Unreal@RC@@SA_KXZ
    ?GetDefaultPropertyValue@FBoolProperty@Unreal@RC@@SA_NXZ
    ?GetDelegateName@USparseDelegateFunction@Unreal@RC@@QEAAAEAVFName@23@XZ
    ?GetDelegateName@USparseDelegateFunction@Unreal@RC@@QEBAAEBVFName@23@XZ
    ?GetDeltaRealTimeSeconds@UWorld@Unreal@RC@@QEAAAEAMXZ
    ?GetDeltaRealTimeSeconds@UWorld@Unreal@RC@@QEBAAEBMXZ
    ?GetDeltaTimeSeconds@UWorld@Unreal@RC@@QEAAAEAMXZ
    ?GetDeltaTimeSeconds@UWorld@Unreal@RC@@QEBAAEBMXZ
    ?GetDesc@UObject@Unreal@RC@@QEAA?AVFString@23@XZ
    ?GetDescriptiveName@FMalloc@Unreal@RC@@QEAAPEB_WXZ
    ?GetDestructorLink@UStruct@Unreal@RC@@QEAAAEAPEAVFProperty@23@XZ
    ?GetDestructorLink@UStruct@Unreal@RC@@QEBAAEAPEBVFProperty@23@XZ
    ?GetDestructorLinkNext@FProperty@Unreal@RC@@QEAAAEAPEAV123@XZ
    ?GetDestructorLinkNext@FProperty@Unreal@RC@@QEBAAEAPEBV123@XZ
    ?GetDetailedInfoInternal@UObject@Unreal@RC@@QEBA?AVFString@23@XZ
    ?GetDetourName@FCallbackIterationDataCommonImpl@Internal@Hook@Unreal@RC@@QEBA?AV?$basic_string_view@_WU?$char_traits@_W@std@@@std@@XZ
    ?GetDisplayIndex@FName@Unreal@RC@@QEBA?AUFNameEntryId@23@XZ
    ?GetDisplayIndexFast@FName@Unreal@RC@@QEBA?AUFNameEntryId@23@XZ
    ?GetDisplayString@ITextData@Unreal@RC@@QEBAAEBVFString@23@XZ
    ?GetElementProp@FSetProperty@Unreal@RC@@QEAAAEAPEAVFProperty@23@XZ
    ?GetElementProp@FSetProperty@Unreal@RC@@QEBAAEAPEBVFProperty@23@XZ
    ?GetElementSize@FProperty@Unreal@RC@@QEAAAEAHXZ
    ?GetElementSize@FProperty@Unreal@RC@@QEBAAEBHXZ
    ?GetEmptyString@?$TStringBase@D@Unreal@RC@@KAPEBDXZ
    ?GetEmptyString@?$TStringBase@_Q@Unreal@RC@@KAPEB_QXZ
    ?GetEmptyString@?$TStringBase@_W@Unreal@RC@@KAPEB_WXZ
    ?GetEmptyUsingStruct@UDataTable@Unreal@RC@@IEBAAEAVUScriptStruct@23@XZ
    ?GetEngineMessageClass@AGameMode@Unreal@RC@@QEAAAEAV?$TSubclassOf@VULocalMessage@Unreal@RC@@@23@XZ
    ?GetEngineMessageClass@AGameMode@Unreal@RC@@QEBAAEBV?$TSubclassOf@VULocalMessage@Unreal@RC@@@23@XZ
    ?GetEngineVersion@UKismetSystemLibrary@Unreal@RC@@SA?AVFString@23@XZ
    ?GetEnum@FByteProperty@Unreal@RC@@QEAAAEAV?$TObjectPtr@VUEnum@Unreal@RC@@@23@XZ
    ?GetEnum@FByteProperty@Unreal@RC@@QEBAAEBV?$TObjectPtr@VUEnum@Unreal@RC@@@23@XZ
    ?GetEnum@FEnumProperty@Unreal@RC@@QEAAAEAV?$TObjectPtr@VUEnum@Unreal@RC@@@23@XZ
    ?GetEnum@FEnumProperty@Unreal@RC@@QEBAAEBV?$TObjectPtr@VUEnum@Unreal@RC@@@23@XZ
    ?GetEnumDisplayNameFn@UEnum@Unreal@RC@@QEAAAEAPEAV?$function@$$A6AXH@Z@std@@XZ
    ?GetEnumDisplayNameFn@UEnum@Unreal@RC@@QEBAAEAPEBV?$function@$$A6AXH@Z@std@@XZ
    ?GetEnumFlags@UEnum@Unreal@RC@@QEAA?AW4EEnumFlags@23@XZ
    ?GetEnumFlags_Internal@UEnum@Unreal@RC@@QEAAAEAW4EEnumFlags@23@XZ
    ?GetEnumFlags_Internal@UEnum@Unreal@RC@@QEBAAEBW4EEnumFlags@23@XZ
    ?GetEnumNameByIndex@UEnum@Unreal@RC@@QEAA?AU?$TTuple@VFName@Unreal@RC@@_J@23@H@Z
    ?GetEnumNameDataUnsafe@UEnum@Unreal@RC@@AEAAAEAUFNameData@123@XZ
    ?GetEnumNames@UEnum@Unreal@RC@@QEAA?AV?$TArray@U?$TTuple@VFName@Unreal@RC@@_J@Unreal@RC@@V?$TSizedDefaultAllocator@$0CA@@23@@23@XZ
    ?GetEnumNamesAsVector@UEnum@Unreal@RC@@QEAAXAEAV?$vector@U?$pair@VFName@Unreal@RC@@_J@std@@V?$allocator@U?$pair@VFName@Unreal@RC@@_J@std@@@2@@std@@@Z
    ?GetEnumNamesNewUnsafe@UEnum@Unreal@RC@@AEAAAEAV?$TArray@U?$TTuple@VFName@Unreal@RC@@_J@Unreal@RC@@V?$TSizedDefaultAllocator@$0CA@@23@@23@XZ
    ?GetEnumNamesOldUnsafe@UEnum@Unreal@RC@@AEAAAEAV?$TArray@U?$TTuple@VFName@Unreal@RC@@E@Unreal@RC@@V?$TSizedDefaultAllocator@$0CA@@23@@23@XZ
    ?GetEnumPackage@UEnum@Unreal@RC@@QEAAAEAVFName@23@XZ
    ?GetEnumPackage@UEnum@Unreal@RC@@QEBAAEBVFName@23@XZ
    ?GetEnumeratorUserFriendlyName@UKismetNodeHelperLibrary@Unreal@RC@@SA?AV?$basic_string@_WU?$char_traits@_W@std@@V?$allocator@_W@2@@std@@PEBVUEnum@23@E@Z
    ?GetEvenIfUnreachable@FWeakObjectPtr@Unreal@RC@@QEBAPEAVUObject@23@XZ
    ?GetEventGraphCallOffset@UFunction@Unreal@RC@@QEAAAEAHXZ
    ?GetEventGraphCallOffset@UFunction@Unreal@RC@@QEBAAEBHXZ
    ?GetEventGraphFunction@UFunction@Unreal@RC@@QEAAAEAPEAV123@XZ
    ?GetEventGraphFunction@UFunction@Unreal@RC@@QEBAAEAPEBV123@XZ
    ?GetExecutorCount@FCallbackMetadata@Internal@Hook@Unreal@RC@@QEBA_KW4memory_order@std@@@Z
    ?GetExporterName@UObject@Unreal@RC@@QEAA?AVFName@23@XZ
    ?GetExternalReferences@FWorldContext@Unreal@RC@@QEAAAEAV?$TArray@PEAV?$TObjectPtr@VUWorld@Unreal@RC@@@Unreal@RC@@V?$TSizedDefaultAllocator@$0CA@@23@@23@XZ
    ?GetExternalReferences@FWorldContext@Unreal@RC@@QEBAAEBV?$TArray@PEAV?$TObjectPtr@VUWorld@Unreal@RC@@@Unreal@RC@@V?$TSizedDefaultAllocator@$0CA@@23@@23@XZ
    ?GetExtraReferencedObjects@UWorld@Unreal@RC@@QEAAAEAV?$TArray@V?$TObjectPtr@VUObject@Unreal@RC@@@Unreal@RC@@V?$TSizedDefaultAllocator@$0CA@@23@@23@XZ
    ?GetExtraReferencedObjects@UWorld@Unreal@RC@@QEBAAEBV?$TArray@V?$TObjectPtr@VUObject@Unreal@RC@@@Unreal@RC@@V?$TSizedDefaultAllocator@$0CA@@23@@23@XZ
    ?GetFFieldClassUnsafe@FField@Unreal@RC@@AEAAPEAVFFieldClass@23@XZ
    ?GetFFieldFNameUnsafe@FField@Unreal@RC@@AEAA?AVFName@23@XZ
    ?GetFFieldOwnerUnsafe@FField@Unreal@RC@@AEAA?AVFFieldVariant@23@XZ
    ?GetFName@FField@Unreal@RC@@QEAA?AVFName@23@XZ
    ?GetFName@FField@Unreal@RC@@QEBA?AVFName@23@XZ
    ?GetFName@FFieldClass@Unreal@RC@@QEAAAEAVFName@23@XZ
    ?GetFName@FFieldClass@Unreal@RC@@QEBAAEBVFName@23@XZ
    ?GetFName@FFieldClassVariant@Unreal@RC@@QEBA?AVFName@23@XZ
    ?GetFName@UObject@Unreal@RC@@QEBA?AVFName@23@XZ
    ?GetFakeVPtr@ICppStructOps@UScriptStruct@Unreal@RC@@QEAAAEAPEBUFStructOpsFakeVTable@Private@CoreUObject@UE@34@XZ
    ?GetFakeVPtr@ICppStructOps@UScriptStruct@Unreal@RC@@QEBAAEAPEBUFStructOpsFakeVTable@Private@CoreUObject@UE@34@XZ
    ?GetFieldMask@FBoolProperty@Unreal@RC@@QEAAAEAEXZ
    ?GetFieldMask@FBoolProperty@Unreal@RC@@QEBAAEBEXZ
    ?GetFieldSize@FBoolProperty@Unreal@RC@@QEAAAEAEXZ
    ?GetFieldSize@FBoolProperty@Unreal@RC@@QEBAAEBEXZ
    ?GetFirstOwnedClassRep@UClass@Unreal@RC@@QEAAAEAHXZ
    ?GetFirstOwnedClassRep@UClass@Unreal@RC@@QEBAAEBHXZ
    ?GetFirstProperty@UStruct@Unreal@RC@@QEAAPEAVFProperty@23@XZ
    ?GetFirstPropertyToInit@UFunction@Unreal@RC@@QEAAAEAPEAVFProperty@23@XZ
    ?GetFirstPropertyToInit@UFunction@Unreal@RC@@QEBAAEAPEBVFProperty@23@XZ
    ?GetFlags@FUObjectItem@Unreal@RC@@AEAAAEAHXZ
    ?GetFlags@FUObjectItem@Unreal@RC@@AEBAAEBHXZ
    ?GetFlagsAndRefCount@FUObjectItem@Unreal@RC@@QEAAAEA_JXZ
    ?GetFlagsAndRefCount@FUObjectItem@Unreal@RC@@QEBAAEB_JXZ
    ?GetFlagsInternal@FUObjectItem@Unreal@RC@@AEAAHXZ
    ?GetFlagsInternal@FUObjectItem@Unreal@RC@@AEBAHXZ
    ?GetFlagsPrivate@FField@Unreal@RC@@QEAAAEAW4EObjectFlags@23@XZ
    ?GetFlagsPrivate@FField@Unreal@RC@@QEBAAEBW4EObjectFlags@23@XZ
    ?GetFloatingPointPropertyValue@FNumericProperty@Unreal@RC@@QEAANPEBX@Z
    ?GetFullName@FField@Unreal@RC@@QEAA?AV?$basic_string@_WU?$char_traits@_W@std@@V?$allocator@_W@2@@std@@XZ
    ?GetFullName@ReflectedFunctionBase@Unreal@RC@@QEBAPEB_WXZ
    ?GetFullName@UObject@Unreal@RC@@QEBA?AV?$basic_string@_WU?$char_traits@_W@std@@V?$allocator@_W@2@@std@@PEAV123@@Z
    ?GetFullPurgeTriggered@UWorld@Unreal@RC@@QEAAAEA_NXZ
    ?GetFullPurgeTriggered@UWorld@Unreal@RC@@QEBAAEB_NXZ
    ?GetFunc419@UFunction@Unreal@RC@@AEAAAEAPEAV?$function@$$A6AXPEAVUObject@Unreal@RC@@AEAUFFrame@23@PEAX@Z@std@@XZ
    ?GetFunc419@UFunction@Unreal@RC@@AEBAAEAPEBV?$function@$$A6AXPEAVUObject@Unreal@RC@@AEAUFFrame@23@PEAX@Z@std@@XZ
    ?GetFunc@UFunction@Unreal@RC@@QEAAAEAPEAV?$function@$$A6AXPEAVUObject@Unreal@RC@@AEAUFFrame@23@PEAX@Z@std@@XZ
    ?GetFuncBase@UFunction@Unreal@RC@@AEAAAEAP8UObject@23@EAAXAEAUFFrame@23@QEAX@ZXZ
    ?GetFuncBase@UFunction@Unreal@RC@@AEBAAEBQ8UObject@23@EAAXAEAUFFrame@23@QEAX@ZXZ
    ?GetFuncMap@UClass@Unreal@RC@@QEAAAEAV?$TMap@VFName@Unreal@RC@@V?$TObjectPtr@VUFunction@Unreal@RC@@@23@VFDefaultSetAllocator@23@U?$TDefaultMapHashableKeyFuncs@VFName@Unreal@RC@@V?$TObjectPtr@VUFunction@Unreal@RC@@@23@$0A@@23@@23@XZ
    ?GetFuncMap@UClass@Unreal@RC@@QEBAAEBV?$TMap@VFName@Unreal@RC@@V?$TObjectPtr@VUFunction@Unreal@RC@@@23@VFDefaultSetAllocator@23@U?$TDefaultMapHashableKeyFuncs@VFName@Unreal@RC@@V?$TObjectPtr@VUFunction@Unreal@RC@@@23@$0A@@23@@23@XZ
    ?GetFuncMapLock@UClass@Unreal@RC@@QEAAAEAVFPlatformRWLock@UE@23@XZ
    ?GetFuncMapLock@UClass@Unreal@RC@@QEBAAEBVFPlatformRWLock@UE@23@XZ
    ?GetFuncPtr@UFunction@Unreal@RC@@QEAAP6AXPEAVUObject@23@AEAUFFrame@23@PEAX@ZXZ
    ?GetFunctionByName@UObject@Unreal@RC@@QEAAPEAVUFunction@23@PEB_W@Z
    ?GetFunctionByName@UObject@Unreal@RC@@QEAAPEAVUFunction@23@VFName@23@@Z
    ?GetFunctionByNameInChain@UObject@Unreal@RC@@QEAAPEAVUFunction@23@PEB_W@Z
    ?GetFunctionByNameInChain@UObject@Unreal@RC@@QEAAPEAVUFunction@23@VFName@23@@Z
    ?GetFunctionCallspace@UObject@Unreal@RC@@QEAAHPEAVUFunction@23@PEAUFFrame@23@@Z
    ?GetFunctionFlags417@UFunction@Unreal@RC@@AEAAAEAW4EFunctionFlags@23@XZ
    ?GetFunctionFlags417@UFunction@Unreal@RC@@AEBAAEBW4EFunctionFlags@23@XZ
    ?GetFunctionFlags@UFunction@Unreal@RC@@QEAAAEAIXZ
    ?GetFunctionFlags@UFunction@Unreal@RC@@QEBAAEBIXZ
    ?GetFunctionFlagsBase@UFunction@Unreal@RC@@AEAAAEAIXZ
    ?GetFunctionFlagsBase@UFunction@Unreal@RC@@AEBAAEBIXZ
    ?GetFunctionHookCallbackData@UFunction@Unreal@RC@@QEAAPEAUUnrealScriptCallbackData@23@H@Z
    ?GetFunctionHookData@UFunction@Unreal@RC@@IEAAAEAVUnrealScriptFunctionData@23@XZ
    ?GetGUObjectArrayAddress@FUObjectArray@Unreal@RC@@SAPEAXXZ
    ?GetGameModeClassAliases@AGameMode@Unreal@RC@@QEAAAEAV?$TArray@UFGameClassShortName@Unreal@RC@@V?$TSizedDefaultAllocator@$0CA@@23@@23@XZ
    ?GetGameModeClassAliases@AGameMode@Unreal@RC@@QEBAAEBV?$TArray@UFGameClassShortName@Unreal@RC@@V?$TSizedDefaultAllocator@$0CA@@23@@23@XZ
    ?GetGameName@UKismetSystemLibrary@Unreal@RC@@SA?AVFString@23@XZ
    ?GetGameNetDriverReplicationSystem@AGameModeBase@Unreal@RC@@QEAAAEAW4EReplicationSystem@23@XZ
    ?GetGameNetDriverReplicationSystem@AGameModeBase@Unreal@RC@@QEBAAEBW4EReplicationSystem@23@XZ
    ?GetGameSession@AGameMode@Unreal@RC@@QEAAAEAPEAVAGameSession@23@XZ
    ?GetGameSession@AGameMode@Unreal@RC@@QEBAAEAPEBVAGameSession@23@XZ
    ?GetGameSession@AGameModeBase@Unreal@RC@@QEAAAEAV?$TObjectPtr@VAGameSession@Unreal@RC@@@23@XZ
    ?GetGameSession@AGameModeBase@Unreal@RC@@QEBAAEBV?$TObjectPtr@VAGameSession@Unreal@RC@@@23@XZ
    ?GetGameSessionClass@AGameModeBase@Unreal@RC@@QEAAAEAV?$TSubclassOf@VAGameSession@Unreal@RC@@@23@XZ
    ?GetGameSessionClass@AGameModeBase@Unreal@RC@@QEBAAEBV?$TSubclassOf@VAGameSession@Unreal@RC@@@23@XZ
    ?GetGameThreadId@Unreal@RC@@YA?AVid@thread@std@@XZ
    ?GetGameThreadIdRaw@Unreal@RC@@YA?AVid@thread@std@@XZ
    ?GetGameViewport@FWorldContext@Unreal@RC@@QEAAAEAV?$TObjectPtr@VUGameViewportClient@Unreal@RC@@@23@XZ
    ?GetGameViewport@FWorldContext@Unreal@RC@@QEBAAEBV?$TObjectPtr@VUGameViewportClient@Unreal@RC@@@23@XZ
    ?GetGarbageObjectsToVerify@FWorldContext@Unreal@RC@@QEAAAEAV?$TSet@UFObjectKey@Unreal@RC@@U?$DefaultKeyFuncs@UFObjectKey@Unreal@RC@@$0A@@23@VFDefaultSetAllocator@23@@23@XZ
    ?GetGarbageObjectsToVerify@FWorldContext@Unreal@RC@@QEBAAEBV?$TSet@UFObjectKey@Unreal@RC@@U?$DefaultKeyFuncs@UFObjectKey@Unreal@RC@@$0A@@23@VFDefaultSetAllocator@23@@23@XZ
    ?GetHUDClass@AGameMode@Unreal@RC@@QEAAAEAV?$TSubclassOf@VAHUD@Unreal@RC@@@23@XZ
    ?GetHUDClass@AGameMode@Unreal@RC@@QEBAAEBV?$TSubclassOf@VAHUD@Unreal@RC@@@23@XZ
    ?GetHUDClass@AGameModeBase@Unreal@RC@@QEAAAEAV?$TSubclassOf@VAHUD@Unreal@RC@@@23@XZ
    ?GetHUDClass@AGameModeBase@Unreal@RC@@QEBAAEBV?$TSubclassOf@VAHUD@Unreal@RC@@@23@XZ
    ?GetHookNameFromMetadata@Hook@Unreal@RC@@YA?AV?$basic_string@_WU?$char_traits@_W@std@@V?$allocator@_W@2@@std@@PEAUFCallbackMetadata@Internal@123@@Z
    ?GetHookedFunctionsMap@Internal@Unreal@RC@@YAAEAV?$unordered_map@PEBVUFunction@Unreal@RC@@VUnrealScriptFunctionData@23@U?$hash@PEBVUFunction@Unreal@RC@@@std@@U?$equal_to@PEBVUFunction@Unreal@RC@@@6@V?$allocator@U?$pair@QEBVUFunction@Unreal@RC@@VUnrealScriptFunctionData@23@@std@@@6@@std@@XZ
    ?GetID@FProperty@Unreal@RC@@QEBA?AVFName@23@XZ
    ?GetId@FFieldClass@Unreal@RC@@QEAAAEA_KXZ
    ?GetId@FFieldClass@Unreal@RC@@QEBAAEB_KXZ
    ?GetImportKeyField@UDataTable@Unreal@RC@@QEAAAEAVFString@23@XZ
    ?GetImportKeyField@UDataTable@Unreal@RC@@QEBAAEBVFString@23@XZ
    ?GetInactivePlayerArray@AGameMode@Unreal@RC@@QEAAAEAV?$TArray@V?$TObjectPtr@VAPlayerState@Unreal@RC@@@Unreal@RC@@V?$TSizedDefaultAllocator@$0CA@@23@@23@XZ
    ?GetInactivePlayerArray@AGameMode@Unreal@RC@@QEBAAEBV?$TArray@V?$TObjectPtr@VAPlayerState@Unreal@RC@@@Unreal@RC@@V?$TSizedDefaultAllocator@$0CA@@23@@23@XZ
    ?GetInactivePlayerStateLifeSpan@AGameMode@Unreal@RC@@QEAAAEAMXZ
    ?GetInactivePlayerStateLifeSpan@AGameMode@Unreal@RC@@QEBAAEBMXZ
    ?GetInheritanceSuper@UStruct@Unreal@RC@@QEBAPEAV123@XZ
    ?GetInner@FArrayProperty@Unreal@RC@@QEAAAEAPEAVFProperty@23@XZ
    ?GetInner@FArrayProperty@Unreal@RC@@QEBAAEAPEBVFProperty@23@XZ
    ?GetInnerFieldByName@FField@Unreal@RC@@QEAAPEAV123@AEBVFName@23@@Z
    ?GetInnerFields@FField@Unreal@RC@@QEAAXAEAV?$TArray@PEAVFField@Unreal@RC@@V?$TSizedDefaultAllocator@$0CA@@23@@23@@Z
    ?GetIntPropertyEnum@FNumericProperty@Unreal@RC@@QEBAPEAVUEnum@23@XZ
    ?GetInterfaceClass@FInterfaceProperty@Unreal@RC@@QEAAAEAV?$TObjectPtr@VUClass@Unreal@RC@@@23@XZ
    ?GetInterfaceClass@FInterfaceProperty@Unreal@RC@@QEBAAEBV?$TObjectPtr@VUClass@Unreal@RC@@@23@XZ
    ?GetInterfaceFuncMap@UClass@Unreal@RC@@QEAAAEAV?$TMap@VFName@Unreal@RC@@PEAVUFunction@23@VFDefaultSetAllocator@23@U?$TDefaultMapHashableKeyFuncs@VFName@Unreal@RC@@PEAVUFunction@23@$0A@@23@@23@XZ
    ?GetInterfaceFuncMap@UClass@Unreal@RC@@QEBAAEBV?$TMap@VFName@Unreal@RC@@PEAVUFunction@23@VFDefaultSetAllocator@23@U?$TDefaultMapHashableKeyFuncs@VFName@Unreal@RC@@PEAVUFunction@23@$0A@@23@@23@XZ
    ?GetInterfaces@UClass@Unreal@RC@@QEAAAEAV?$TArray@UFImplementedInterface@Unreal@RC@@V?$TSizedDefaultAllocator@$0CA@@23@@23@XZ
    ?GetInterfaces@UClass@Unreal@RC@@QEBAAEBV?$TArray@UFImplementedInterface@Unreal@RC@@V?$TSizedDefaultAllocator@$0CA@@23@@23@XZ
    ?GetInternalIndex@UObjectBase@Unreal@RC@@QEAAHXZ
    ?GetInternalIndex@UObjectBase@Unreal@RC@@QEBA?BHXZ
    ?GetInternalIndex_Private@UObjectBase@Unreal@RC@@QEAAAEAHXZ
    ?GetInternalIndex_Private@UObjectBase@Unreal@RC@@QEBAAEBHXZ
    ?GetIsInBlockTillLevelStreamingCompleted@UWorld@Unreal@RC@@QEAAAEAIXZ
    ?GetIsInBlockTillLevelStreamingCompleted@UWorld@Unreal@RC@@QEBAAEBIXZ
    ?GetIsSetPointer@FOptionalProperty@Unreal@RC@@IEBAPEA_NPEAX@Z
    ?GetIsSetPointer@FOptionalProperty@Unreal@RC@@IEBAPEB_NPEBX@Z
    ?GetIsSetPointer@FOptionalPropertyLayout@Unreal@RC@@IEBAPEA_NPEAX@Z
    ?GetIsSetPointer@FOptionalPropertyLayout@Unreal@RC@@IEBAPEB_NPEBX@Z
    ?GetKeyProp@FMapProperty@Unreal@RC@@QEAAAEAPEAVFProperty@23@XZ
    ?GetKeyProp@FMapProperty@Unreal@RC@@QEBAAEAPEBVFProperty@23@XZ
    ?GetLWILastAssignedUID@UWorld@Unreal@RC@@QEAAAEAIXZ
    ?GetLWILastAssignedUID@UWorld@Unreal@RC@@QEBAAEBIXZ
    ?GetLastRemoteURL@FWorldContext@Unreal@RC@@QEAAAEAUFURL@23@XZ
    ?GetLastRemoteURL@FWorldContext@Unreal@RC@@QEBAAEBUFURL@23@XZ
    ?GetLastRenderTime@UWorld@Unreal@RC@@QEAAAEANXZ
    ?GetLastRenderTime@UWorld@Unreal@RC@@QEBAAEBNXZ
    ?GetLastTimeUnbuiltLightingWasEncountered@UWorld@Unreal@RC@@QEAAAEANXZ
    ?GetLastTimeUnbuiltLightingWasEncountered@UWorld@Unreal@RC@@QEBAAEBNXZ
    ?GetLastURL@FWorldContext@Unreal@RC@@QEAAAEAUFURL@23@XZ
    ?GetLastURL@FWorldContext@Unreal@RC@@QEBAAEBUFURL@23@XZ
    ?GetLastViewLocation@ULocalPlayer@Unreal@RC@@QEAAAEAUFVector@23@XZ
    ?GetLastViewLocation@ULocalPlayer@Unreal@RC@@QEBAAEBUFVector@23@XZ
    ?GetLevel@AActor@Unreal@RC@@QEAAPEAVUObject@23@XZ
    ?GetLevelSequenceActors@UWorld@Unreal@RC@@QEAAAEAV?$TArray@PEAVAActor@Unreal@RC@@V?$TSizedDefaultAllocator@$0CA@@23@@23@XZ
    ?GetLevelSequenceActors@UWorld@Unreal@RC@@QEBAAEBV?$TArray@PEAVAActor@Unreal@RC@@V?$TSizedDefaultAllocator@$0CA@@23@@23@XZ
    ?GetLevelsToLoadForPendingMapChange@FWorldContext@Unreal@RC@@QEAAAEAV?$TArray@VFName@Unreal@RC@@V?$TSizedDefaultAllocator@$0CA@@23@@23@XZ
    ?GetLevelsToLoadForPendingMapChange@FWorldContext@Unreal@RC@@QEBAAEBV?$TArray@VFName@Unreal@RC@@V?$TSizedDefaultAllocator@$0CA@@23@@23@XZ
    ?GetLifetimeReplicatedProps@UObject@Unreal@RC@@QEBAXAEAV?$TArray@VFLifetimeProperty@Unreal@RC@@V?$TSizedDefaultAllocator@$0CA@@23@@23@@Z
    ?GetMapFlags@FMapProperty@Unreal@RC@@QEAAAEAW4EMapPropertyFlags@23@XZ
    ?GetMapFlags@FMapProperty@Unreal@RC@@QEBAAEBW4EMapPropertyFlags@23@XZ
    ?GetMapLayout@FMapProperty@Unreal@RC@@QEAAAEAUFScriptMapLayout@23@XZ
    ?GetMapLayout@FMapProperty@Unreal@RC@@QEBAAEBUFScriptMapLayout@23@XZ
    ?GetMasterSerialNumber@FUObjectArray@Unreal@RC@@QEAAAEAVFThreadSafeCounter@23@XZ
    ?GetMasterSerialNumber@FUObjectArray@Unreal@RC@@QEBAAEBVFThreadSafeCounter@23@XZ
    ?GetMatchState@AGameMode@Unreal@RC@@QEAAAEAVFName@23@XZ
    ?GetMatchState@AGameMode@Unreal@RC@@QEBAAEBVFName@23@XZ
    ?GetMaxChunks@TUObjectArray@Unreal@RC@@QEAAAEAHXZ
    ?GetMaxChunks@TUObjectArray@Unreal@RC@@QEBAAEBHXZ
    ?GetMaxElements@TUObjectArray@Unreal@RC@@QEAAAEAHXZ
    ?GetMaxElements@TUObjectArray@Unreal@RC@@QEBAAEBHXZ
    ?GetMaxInactivePlayers@AGameMode@Unreal@RC@@QEAAAEAHXZ
    ?GetMaxInactivePlayers@AGameMode@Unreal@RC@@QEBAAEBHXZ
    ?GetMaxObjectsNotConsideredByGC@FUObjectArray@Unreal@RC@@QEAAAEAHXZ
    ?GetMaxObjectsNotConsideredByGC@FUObjectArray@Unreal@RC@@QEBAAEBHXZ
    ?GetMetaClass@FClassProperty@Unreal@RC@@QEAAAEAV?$TObjectPtr@VUClass@Unreal@RC@@@23@XZ
    ?GetMetaClass@FClassProperty@Unreal@RC@@QEBAAEBV?$TObjectPtr@VUClass@Unreal@RC@@@23@XZ
    ?GetMetaClass@FSoftClassProperty@Unreal@RC@@QEAAAEAV?$TObjectPtr@VUClass@Unreal@RC@@@23@XZ
    ?GetMetaClass@FSoftClassProperty@Unreal@RC@@QEBAAEBV?$TObjectPtr@VUClass@Unreal@RC@@@23@XZ
    ?GetMinAlignment506@UStruct@Unreal@RC@@AEAAAEAFXZ
    ?GetMinAlignment506@UStruct@Unreal@RC@@AEBAAEBFXZ
    ?GetMinAlignment@FProperty@Unreal@RC@@QEBAHXZ
    ?GetMinAlignment@UStruct@Unreal@RC@@QEAAAEAFXZ
    ?GetMinAlignment@UStruct@Unreal@RC@@QEBAAEBFXZ
    ?GetMinAlignmentBase@UStruct@Unreal@RC@@AEAAAEAHXZ
    ?GetMinAlignmentBase@UStruct@Unreal@RC@@AEBAAEBHXZ
    ?GetMinRespawnDelay@AGameMode@Unreal@RC@@QEAAAEAMXZ
    ?GetMinRespawnDelay@AGameMode@Unreal@RC@@QEBAAEBMXZ
    ?GetMulticastDelegate@FMulticastDelegateProperty@Unreal@RC@@QEBAPEBV?$TMulticastScriptDelegate@UFWeakObjectPtr@Unreal@RC@@@23@PEBX@Z
    ?GetMutableNames@FNameData@UEnum@Unreal@RC@@QEAAPEAVFName@34@XZ
    ?GetMutableValues@FNameData@UEnum@Unreal@RC@@QEAAPEA_JXZ
    ?GetName@FField@Unreal@RC@@QEAA?AV?$basic_string@_WU?$char_traits@_W@std@@V?$allocator@_W@2@@std@@XZ
    ?GetName@FField@Unreal@RC@@QEBA?AV?$basic_string@_WU?$char_traits@_W@std@@V?$allocator@_W@2@@std@@XZ
    ?GetName@FFieldClass@Unreal@RC@@QEBA?AV?$basic_string@_WU?$char_traits@_W@std@@V?$allocator@_W@2@@std@@XZ
    ?GetName@FFieldClassVariant@Unreal@RC@@QEBA?AV?$basic_string@_WU?$char_traits@_W@std@@V?$allocator@_W@2@@std@@XZ
    ?GetName@UObject@Unreal@RC@@QEBA?AV?$basic_string@_WU?$char_traits@_W@std@@V?$allocator@_W@2@@std@@XZ
    ?GetNameAt@FNameData@UEnum@Unreal@RC@@QEBA?AVFName@34@H@Z
    ?GetNameByValue@UEnum@Unreal@RC@@QEAA?AVFName@23@_J@Z
    ?GetNamePrivate@FField@Unreal@RC@@AEAAAEAVFName@23@XZ
    ?GetNamePrivate@FField@Unreal@RC@@AEBAAEBVFName@23@XZ
    ?GetNamePrivate@UObjectBase@Unreal@RC@@QEAAAEAVFName@23@XZ
    ?GetNamePrivate@UObjectBase@Unreal@RC@@QEBAAEBVFName@23@XZ
    ?GetNameToFieldClassMap@FFieldClass@Unreal@RC@@SAAEAV?$TMap@VFName@Unreal@RC@@PEAVFFieldClass@23@VFDefaultSetAllocator@23@U?$TDefaultMapHashableKeyFuncs@VFName@Unreal@RC@@PEAVFFieldClass@23@$0A@@23@@23@XZ
    ?GetNames415@UEnum@Unreal@RC@@AEAAAEAV?$TArray@U?$TTuple@VFName@Unreal@RC@@_J@Unreal@RC@@V?$TSizedDefaultAllocator@$0CA@@23@@23@XZ
    ?GetNames415@UEnum@Unreal@RC@@AEBAAEBV?$TArray@U?$TTuple@VFName@Unreal@RC@@_J@Unreal@RC@@V?$TSizedDefaultAllocator@$0CA@@23@@23@XZ
    ?GetNames416@UEnum@Unreal@RC@@AEAAAEAV?$TArray@U?$TTuple@VFName@Unreal@RC@@_J@Unreal@RC@@V?$TSizedDefaultAllocator@$0CA@@23@@23@XZ
    ?GetNames416@UEnum@Unreal@RC@@AEBAAEBV?$TArray@U?$TTuple@VFName@Unreal@RC@@_J@Unreal@RC@@V?$TSizedDefaultAllocator@$0CA@@23@@23@XZ
    ?GetNames507@UEnum@Unreal@RC@@AEAAAEAUFNameData@123@XZ
    ?GetNames507@UEnum@Unreal@RC@@AEBAAEBUFNameData@123@XZ
    ?GetNames@FNameData@UEnum@Unreal@RC@@QEBAPEBVFName@34@XZ
    ?GetNamesBase@UEnum@Unreal@RC@@AEAAAEAV?$TArray@U?$TTuple@VFName@Unreal@RC@@E@Unreal@RC@@V?$TSizedDefaultAllocator@$0CA@@23@@23@XZ
    ?GetNamesBase@UEnum@Unreal@RC@@AEBAAEBV?$TArray@U?$TTuple@VFName@Unreal@RC@@E@Unreal@RC@@V?$TSizedDefaultAllocator@$0CA@@23@@23@XZ
    ?GetNativeFunctionLookupTable@UClass@Unreal@RC@@QEAAAEAV?$TArray@UFNativeFunctionLookup@Unreal@RC@@V?$TSizedDefaultAllocator@$0CA@@23@@23@XZ
    ?GetNativeFunctionLookupTable@UClass@Unreal@RC@@QEBAAEBV?$TArray@UFNativeFunctionLookup@Unreal@RC@@V?$TSizedDefaultAllocator@$0CA@@23@@23@XZ
    ?GetNativePropertyValues@UObject@Unreal@RC@@QEBA_NAEAV?$TMap@VFString@Unreal@RC@@V123@VFDefaultSetAllocator@23@U?$TDefaultMapHashableKeyFuncs@VFString@Unreal@RC@@V123@$0A@@23@@23@I@Z
    ?GetNetFields@UClass@Unreal@RC@@QEAAAEAV?$TArray@V?$TObjectPtr@VUField@Unreal@RC@@@Unreal@RC@@V?$TSizedDefaultAllocator@$0CA@@23@@23@XZ
    ?GetNetFields@UClass@Unreal@RC@@QEBAAEBV?$TArray@V?$TObjectPtr@VUField@Unreal@RC@@@Unreal@RC@@V?$TSizedDefaultAllocator@$0CA@@23@@23@XZ
    ?GetNetPushIdDynamic@UObject@Unreal@RC@@QEBAHXZ
    ?GetNetworkActors@UWorld@Unreal@RC@@QEAAAEAV?$TSet@PEAVAActor@Unreal@RC@@U?$DefaultKeyFuncs@PEAVAActor@Unreal@RC@@$0A@@23@VFDefaultSetAllocator@23@@23@XZ
    ?GetNetworkActors@UWorld@Unreal@RC@@QEBAAEBV?$TSet@PEAVAActor@Unreal@RC@@U?$DefaultKeyFuncs@PEAVAActor@Unreal@RC@@$0A@@23@VFDefaultSetAllocator@23@@23@XZ
    ?GetNext@FField@Unreal@RC@@AEAAAEAPEAV123@XZ
    ?GetNext@FField@Unreal@RC@@AEBAAEAPEBV123@XZ
    ?GetNext@UField@Unreal@RC@@QEAAAEAV?$TObjectPtr@VUField@Unreal@RC@@@23@XZ
    ?GetNext@UField@Unreal@RC@@QEBAAEBV?$TObjectPtr@VUField@Unreal@RC@@@23@XZ
    ?GetNextFFieldUnsafe@FField@Unreal@RC@@AEAAPEAV123@XZ
    ?GetNextField@UField@Unreal@RC@@IEAAPEAV123@XZ
    ?GetNextFieldAsProperty@FField@Unreal@RC@@QEAAPEAVFProperty@23@XZ
    ?GetNextPropertyAndAdvance@FCustomPropertyListNode@Unreal@RC@@SAPEAVFProperty@23@AEAPEBU123@@Z
    ?GetNextRef@FProperty@Unreal@RC@@QEAAAEAPEAV123@XZ
    ?GetNextRef@FProperty@Unreal@RC@@QEBAAEAPEBV123@XZ
    ?GetNextSwitchCountdown@UWorld@Unreal@RC@@QEAAAEAMXZ
    ?GetNextSwitchCountdown@UWorld@Unreal@RC@@QEBAAEBMXZ
    ?GetNextURL@UWorld@Unreal@RC@@QEAAAEAVFString@23@XZ
    ?GetNextURL@UWorld@Unreal@RC@@QEBAAEBVFString@23@XZ
    ?GetNumBots@AGameMode@Unreal@RC@@QEAAAEAHXZ
    ?GetNumBots@AGameMode@Unreal@RC@@QEBAAEBHXZ
    ?GetNumChunks@FUObjectArray@Unreal@RC@@SAHXZ
    ?GetNumChunks@TUObjectArray@Unreal@RC@@QEAAAEAHXZ
    ?GetNumChunks@TUObjectArray@Unreal@RC@@QEBAAEBHXZ
    ?GetNumElements@FUObjectArray@Unreal@RC@@SAHXZ
    ?GetNumElements@TUObjectArray@Unreal@RC@@QEAAAEAHXZ
    ?GetNumElements@TUObjectArray@Unreal@RC@@QEBAAEBHXZ
    ?GetNumInvalidReflectionCaptureComponents@UWorld@Unreal@RC@@QEAAAEAIXZ
    ?GetNumInvalidReflectionCaptureComponents@UWorld@Unreal@RC@@QEBAAEBIXZ
    ?GetNumLightingUnbuiltObjects@UWorld@Unreal@RC@@QEAAAEAIXZ
    ?GetNumLightingUnbuiltObjects@UWorld@Unreal@RC@@QEBAAEBIXZ
    ?GetNumParms@UFunction@Unreal@RC@@QEAAAEAEXZ
    ?GetNumParms@UFunction@Unreal@RC@@QEBAAEBEXZ
    ?GetNumPlayers@AGameMode@Unreal@RC@@QEAAAEAHXZ
    ?GetNumPlayers@AGameMode@Unreal@RC@@QEBAAEBHXZ
    ?GetNumSpectators@AGameMode@Unreal@RC@@QEAAAEAHXZ
    ?GetNumSpectators@AGameMode@Unreal@RC@@QEBAAEBHXZ
    ?GetNumStreamingLevelsBeingLoaded@UWorld@Unreal@RC@@QEAAAEAGXZ
    ?GetNumStreamingLevelsBeingLoaded@UWorld@Unreal@RC@@QEBAAEBGXZ
    ?GetNumTextureStreamingDirtyResources@UWorld@Unreal@RC@@QEAAAEAHXZ
    ?GetNumTextureStreamingDirtyResources@UWorld@Unreal@RC@@QEBAAEBHXZ
    ?GetNumTextureStreamingUnbuiltComponents@UWorld@Unreal@RC@@QEAAAEAHXZ
    ?GetNumTextureStreamingUnbuiltComponents@UWorld@Unreal@RC@@QEBAAEBHXZ
    ?GetNumTravellingPlayers@AGameMode@Unreal@RC@@QEAAAEAHXZ
    ?GetNumTravellingPlayers@AGameMode@Unreal@RC@@QEBAAEBHXZ
    ?GetNumUnbuiltReflectionCaptures@UWorld@Unreal@RC@@QEAAAEAIXZ
    ?GetNumUnbuiltReflectionCaptures@UWorld@Unreal@RC@@QEBAAEBIXZ
    ?GetNumber@FName@Unreal@RC@@QEBAHXZ
    ?GetNumericPropertyValueToString@FNumericProperty@Unreal@RC@@QEAA?AVFString@23@PEBX@Z
    ?GetObjAvailableList427@FUObjectArray@Unreal@RC@@AEAAAEAV?$TArray@HV?$TSizedDefaultAllocator@$0CA@@Unreal@RC@@@23@XZ
    ?GetObjAvailableList427@FUObjectArray@Unreal@RC@@AEBAAEBV?$TArray@HV?$TSizedDefaultAllocator@$0CA@@Unreal@RC@@@23@XZ
    ?GetObjAvailableListBase@FUObjectArray@Unreal@RC@@AEAAAEAV?$TLockFreePointerListLIFO@H@23@XZ
    ?GetObjAvailableListBase@FUObjectArray@Unreal@RC@@AEBAAEBV?$TLockFreePointerListLIFO@H@23@XZ
    ?GetObjAvailableListEstimateCount@FUObjectArray@Unreal@RC@@QEAAAEAHXZ
    ?GetObjAvailableListEstimateCount@FUObjectArray@Unreal@RC@@QEBAAEBHXZ
    ?GetObjFirstGCIndex@FUObjectArray@Unreal@RC@@QEAAAEAHXZ
    ?GetObjFirstGCIndex@FUObjectArray@Unreal@RC@@QEBAAEBHXZ
    ?GetObjLastNonGCIndex@FUObjectArray@Unreal@RC@@QEAAAEAHXZ
    ?GetObjLastNonGCIndex@FUObjectArray@Unreal@RC@@QEBAAEBHXZ
    ?GetObjObjects@FUObjectArray@Unreal@RC@@QEAAAEAVTUObjectArray@23@XZ
    ?GetObjObjects@FUObjectArray@Unreal@RC@@QEBAAEBVTUObjectArray@23@XZ
    ?GetObject@FUObjectItem@Unreal@RC@@AEAAAEAPEAVUObjectBase@23@XZ
    ?GetObject@FUObjectItem@Unreal@RC@@AEBAAEAPEBVUObjectBase@23@XZ
    ?GetObjectArraySize@FUObjectArray@Unreal@RC@@SAHXZ
    ?GetObjectFlags@UObjectBase@Unreal@RC@@QEAAAEAW4EObjectFlags@23@XZ
    ?GetObjectFlags@UObjectBase@Unreal@RC@@QEBAAEBW4EObjectFlags@23@XZ
    ?GetObjectIndex_Private@FWeakObjectPtr@Unreal@RC@@AEBAHXZ
    ?GetObjectItem@UObjectBase@Unreal@RC@@QEAAPEAUFUObjectItem@23@XZ
    ?GetObjectItem@UObjectBase@Unreal@RC@@QEBAPEBUFUObjectItem@23@XZ
    ?GetObjectItemSize@FUObjectArray@Unreal@RC@@SAHXZ
    ?GetObjectPropertyValue@FObjectPropertyBase@Unreal@RC@@QEBAPEAVUObject@23@PEBX@Z
    ?GetObjectPtr@TUObjectArray@Unreal@RC@@QEAAPEAUFUObjectItem@23@H@Z
    ?GetObjectPtr@TUObjectArray@Unreal@RC@@QEBAPEAUFUObjectItem@23@H@Z
    ?GetObjectPtrLow@FUObjectItem@Unreal@RC@@QEAAAEAIXZ
    ?GetObjectPtrLow@FUObjectItem@Unreal@RC@@QEBAAEBIXZ
    ?GetObjects@TUObjectArray@Unreal@RC@@QEAAAEAPEAPEAUFUObjectItem@23@XZ
    ?GetObjects@TUObjectArray@Unreal@RC@@QEBAAEAPEAPEBUFUObjectItem@23@XZ
    ?GetOffset_ForInternal@FProperty@Unreal@RC@@QEBAHXZ
    ?GetOffset_Internal@FProperty@Unreal@RC@@QEAAAEAHXZ
    ?GetOffset_Internal@FProperty@Unreal@RC@@QEBAAEBHXZ
    ?GetOpenForDisregardForGC411@FUObjectArray@Unreal@RC@@AEAAAEA_NXZ
    ?GetOpenForDisregardForGC411@FUObjectArray@Unreal@RC@@AEBAAEB_NXZ
    ?GetOpenForDisregardForGCBase@FUObjectArray@Unreal@RC@@AEAAAEAHXZ
    ?GetOpenForDisregardForGCBase@FUObjectArray@Unreal@RC@@AEBAAEBHXZ
    ?GetOptionalPropertyValue@?$TPropertyTypeFundamentals@C@Unreal@RC@@SACPEBX@Z
    ?GetOptionalPropertyValue@?$TPropertyTypeFundamentals@E@Unreal@RC@@SAEPEBX@Z
    ?GetOptionalPropertyValue@?$TPropertyTypeFundamentals@F@Unreal@RC@@SAFPEBX@Z
    ?GetOptionalPropertyValue@?$TPropertyTypeFundamentals@G@Unreal@RC@@SAGPEBX@Z
    ?GetOptionalPropertyValue@?$TPropertyTypeFundamentals@H@Unreal@RC@@SAHPEBX@Z
    ?GetOptionalPropertyValue@?$TPropertyTypeFundamentals@I@Unreal@RC@@SAIPEBX@Z
    ?GetOptionalPropertyValue@?$TPropertyTypeFundamentals@M@Unreal@RC@@SAMPEBX@Z
    ?GetOptionalPropertyValue@?$TPropertyTypeFundamentals@N@Unreal@RC@@SANPEBX@Z
    ?GetOptionalPropertyValue@?$TPropertyTypeFundamentals@PEAVUObject@Unreal@RC@@@Unreal@RC@@SAPEAVUObject@23@PEBX@Z
    ?GetOptionalPropertyValue@?$TPropertyTypeFundamentals@UFFieldPath@Unreal@RC@@@Unreal@RC@@SA?AUFFieldPath@23@PEBX@Z
    ?GetOptionalPropertyValue@?$TPropertyTypeFundamentals@UFLazyObjectPtr@Unreal@RC@@@Unreal@RC@@SA?AUFLazyObjectPtr@23@PEBX@Z
    ?GetOptionalPropertyValue@?$TPropertyTypeFundamentals@UFSoftObjectPtr@Unreal@RC@@@Unreal@RC@@SA?AUFSoftObjectPtr@23@PEBX@Z
    ?GetOptionalPropertyValue@?$TPropertyTypeFundamentals@UFSparseDelegate@Unreal@RC@@@Unreal@RC@@SA?AUFSparseDelegate@23@PEBX@Z
    ?GetOptionalPropertyValue@?$TPropertyTypeFundamentals@UFWeakObjectPtr@Unreal@RC@@@Unreal@RC@@SA?AUFWeakObjectPtr@23@PEBX@Z
    ?GetOptionalPropertyValue@?$TPropertyTypeFundamentals@V?$TMulticastScriptDelegate@UFWeakObjectPtr@Unreal@RC@@@Unreal@RC@@@Unreal@RC@@SA?AV?$TMulticastScriptDelegate@UFWeakObjectPtr@Unreal@RC@@@23@PEBX@Z
    ?GetOptionalPropertyValue@?$TPropertyTypeFundamentals@V?$TScriptDelegate@UFWeakObjectPtr@Unreal@RC@@@Unreal@RC@@@Unreal@RC@@SA?AV?$TScriptDelegate@UFWeakObjectPtr@Unreal@RC@@@23@PEBX@Z
    ?GetOptionalPropertyValue@?$TPropertyTypeFundamentals@VFAnsiString@Unreal@RC@@@Unreal@RC@@SA?AVFAnsiString@23@PEBX@Z
    ?GetOptionalPropertyValue@?$TPropertyTypeFundamentals@VFName@Unreal@RC@@@Unreal@RC@@SA?AVFName@23@PEBX@Z
    ?GetOptionalPropertyValue@?$TPropertyTypeFundamentals@VFScriptInterface@Unreal@RC@@@Unreal@RC@@SA?AVFScriptInterface@23@PEBX@Z
    ?GetOptionalPropertyValue@?$TPropertyTypeFundamentals@VFScriptMap@Unreal@RC@@@Unreal@RC@@SA?AVFScriptMap@23@PEBX@Z
    ?GetOptionalPropertyValue@?$TPropertyTypeFundamentals@VFScriptSet@Unreal@RC@@@Unreal@RC@@SA?AVFScriptSet@23@PEBX@Z
    ?GetOptionalPropertyValue@?$TPropertyTypeFundamentals@VFString@Unreal@RC@@@Unreal@RC@@SA?AVFString@23@PEBX@Z
    ?GetOptionalPropertyValue@?$TPropertyTypeFundamentals@VFText@Unreal@RC@@@Unreal@RC@@SA?AVFText@23@PEBX@Z
    ?GetOptionalPropertyValue@?$TPropertyTypeFundamentals@VFUtf8String@Unreal@RC@@@Unreal@RC@@SA?AVFUtf8String@23@PEBX@Z
    ?GetOptionalPropertyValue@?$TPropertyTypeFundamentals@_J@Unreal@RC@@SA_JPEBX@Z
    ?GetOptionalPropertyValue@?$TPropertyTypeFundamentals@_K@Unreal@RC@@SA_KPEBX@Z
    ?GetOptionalPropertyValue@FBoolProperty@Unreal@RC@@QEAA_NPEBX@Z
    ?GetOptionalPropertyValueInContainer@?$TProperty@CVFNumericProperty@Unreal@RC@@@Unreal@RC@@QEAACPEBXH@Z
    ?GetOptionalPropertyValueInContainer@?$TProperty@EVFNumericProperty@Unreal@RC@@@Unreal@RC@@QEAAEPEBXH@Z
    ?GetOptionalPropertyValueInContainer@?$TProperty@FVFNumericProperty@Unreal@RC@@@Unreal@RC@@QEAAFPEBXH@Z
    ?GetOptionalPropertyValueInContainer@?$TProperty@GVFNumericProperty@Unreal@RC@@@Unreal@RC@@QEAAGPEBXH@Z
    ?GetOptionalPropertyValueInContainer@?$TProperty@HVFNumericProperty@Unreal@RC@@@Unreal@RC@@QEAAHPEBXH@Z
    ?GetOptionalPropertyValueInContainer@?$TProperty@IVFNumericProperty@Unreal@RC@@@Unreal@RC@@QEAAIPEBXH@Z
    ?GetOptionalPropertyValueInContainer@?$TProperty@MVFNumericProperty@Unreal@RC@@@Unreal@RC@@QEAAMPEBXH@Z
    ?GetOptionalPropertyValueInContainer@?$TProperty@NVFNumericProperty@Unreal@RC@@@Unreal@RC@@QEAANPEBXH@Z
    ?GetOptionalPropertyValueInContainer@?$TProperty@PEAVUObject@Unreal@RC@@VFObjectPropertyBase@23@@Unreal@RC@@QEAAPEAVUObject@23@PEBXH@Z
    ?GetOptionalPropertyValueInContainer@?$TProperty@UFFieldPath@Unreal@RC@@VFProperty@23@@Unreal@RC@@QEAA?AUFFieldPath@23@PEBXH@Z
    ?GetOptionalPropertyValueInContainer@?$TProperty@UFLazyObjectPtr@Unreal@RC@@VFObjectPropertyBase@23@@Unreal@RC@@QEAA?AUFLazyObjectPtr@23@PEBXH@Z
    ?GetOptionalPropertyValueInContainer@?$TProperty@UFSoftObjectPtr@Unreal@RC@@VFObjectPropertyBase@23@@Unreal@RC@@QEAA?AUFSoftObjectPtr@23@PEBXH@Z
    ?GetOptionalPropertyValueInContainer@?$TProperty@UFSparseDelegate@Unreal@RC@@VFMulticastDelegateProperty@23@@Unreal@RC@@QEAA?AUFSparseDelegate@23@PEBXH@Z
    ?GetOptionalPropertyValueInContainer@?$TProperty@UFWeakObjectPtr@Unreal@RC@@VFObjectPropertyBase@23@@Unreal@RC@@QEAA?AUFWeakObjectPtr@23@PEBXH@Z
    ?GetOptionalPropertyValueInContainer@?$TProperty@V?$TMulticastScriptDelegate@UFWeakObjectPtr@Unreal@RC@@@Unreal@RC@@VFMulticastDelegateProperty@23@@Unreal@RC@@QEAA?AV?$TMulticastScriptDelegate@UFWeakObjectPtr@Unreal@RC@@@23@PEBXH@Z
    ?GetOptionalPropertyValueInContainer@?$TProperty@V?$TScriptDelegate@UFWeakObjectPtr@Unreal@RC@@@Unreal@RC@@VFProperty@23@@Unreal@RC@@QEAA?AV?$TScriptDelegate@UFWeakObjectPtr@Unreal@RC@@@23@PEBXH@Z
    ?GetOptionalPropertyValueInContainer@?$TProperty@VFAnsiString@Unreal@RC@@VFProperty@23@@Unreal@RC@@QEAA?AVFAnsiString@23@PEBXH@Z
    ?GetOptionalPropertyValueInContainer@?$TProperty@VFName@Unreal@RC@@VFProperty@23@@Unreal@RC@@QEAA?AVFName@23@PEBXH@Z
    ?GetOptionalPropertyValueInContainer@?$TProperty@VFScriptInterface@Unreal@RC@@VFProperty@23@@Unreal@RC@@QEAA?AVFScriptInterface@23@PEBXH@Z
    ?GetOptionalPropertyValueInContainer@?$TProperty@VFScriptMap@Unreal@RC@@VFProperty@23@@Unreal@RC@@QEAA?AVFScriptMap@23@PEBXH@Z
    ?GetOptionalPropertyValueInContainer@?$TProperty@VFScriptSet@Unreal@RC@@VFProperty@23@@Unreal@RC@@QEAA?AVFScriptSet@23@PEBXH@Z
    ?GetOptionalPropertyValueInContainer@?$TProperty@VFString@Unreal@RC@@VFProperty@23@@Unreal@RC@@QEAA?AVFString@23@PEBXH@Z
    ?GetOptionalPropertyValueInContainer@?$TProperty@VFText@Unreal@RC@@VFProperty@23@@Unreal@RC@@QEAA?AVFText@23@PEBXH@Z
    ?GetOptionalPropertyValueInContainer@?$TProperty@VFUtf8String@Unreal@RC@@VFProperty@23@@Unreal@RC@@QEAA?AVFUtf8String@23@PEBXH@Z
    ?GetOptionalPropertyValueInContainer@?$TProperty@_JVFNumericProperty@Unreal@RC@@@Unreal@RC@@QEAA_JPEBXH@Z
    ?GetOptionalPropertyValueInContainer@?$TProperty@_KVFNumericProperty@Unreal@RC@@@Unreal@RC@@QEAA_KPEBXH@Z
    ?GetOptionalPropertyValueInContainer@FBoolProperty@Unreal@RC@@QEAA_NPEBXH@Z
    ?GetOptionsString@AGameMode@Unreal@RC@@QEAAAEAVFString@23@XZ
    ?GetOptionsString@AGameMode@Unreal@RC@@QEBAAEBVFString@23@XZ
    ?GetOptionsString@AGameModeBase@Unreal@RC@@QEAAAEAVFString@23@XZ
    ?GetOptionsString@AGameModeBase@Unreal@RC@@QEBAAEBVFString@23@XZ
    ?GetOriginOffsetThisFrame@UWorld@Unreal@RC@@QEAAAEAUFVector@23@XZ
    ?GetOriginOffsetThisFrame@UWorld@Unreal@RC@@QEBAAEBUFVector@23@XZ
    ?GetOriginalFuncPtr@UnrealScriptFunctionData@Unreal@RC@@QEBAP6AXPEAVUObject@23@AEAUFFrame@23@PEAX@ZXZ
    ?GetOuterPrivate@UObjectBase@Unreal@RC@@QEAAAEAPEAVUObject@23@XZ
    ?GetOuterPrivate@UObjectBase@Unreal@RC@@QEBAAEAPEBVUObject@23@XZ
    ?GetOutermost@UObject@Unreal@RC@@QEAAPEAV123@XZ
    ?GetOutermostOwner@FField@Unreal@RC@@QEAAPEAVUObject@23@XZ
    ?GetOwner@FField@Unreal@RC@@AEAAAEAVFFieldVariant@23@XZ
    ?GetOwner@FField@Unreal@RC@@AEBAAEBVFFieldVariant@23@XZ
    ?GetOwnerModName@FCallbackIterationDataCommonImpl@Internal@Hook@Unreal@RC@@QEBA?AV?$basic_string_view@_WU?$char_traits@_W@std@@@std@@XZ
    ?GetOwnerModNameFromMetadata@Hook@Unreal@RC@@YA?AV?$basic_string@_WU?$char_traits@_W@std@@V?$allocator@_W@2@@std@@PEAUFCallbackMetadata@Internal@123@@Z
    ?GetOwnerVariant@FField@Unreal@RC@@QEAA?AVFFieldVariant@23@XZ
    ?GetOwnerVariant@FFieldVariant@Unreal@RC@@QEAA?AV123@XZ
    ?GetOwningClassName@USparseDelegateFunction@Unreal@RC@@QEAAAEAVFName@23@XZ
    ?GetOwningClassName@USparseDelegateFunction@Unreal@RC@@QEBAAEBVFName@23@XZ
    ?GetPIEAccumulatedTickSeconds@FWorldContext@Unreal@RC@@QEAAAEAMXZ
    ?GetPIEAccumulatedTickSeconds@FWorldContext@Unreal@RC@@QEBAAEBMXZ
    ?GetPIEFixedTickSeconds@FWorldContext@Unreal@RC@@QEAAAEAMXZ
    ?GetPIEFixedTickSeconds@FWorldContext@Unreal@RC@@QEBAAEBMXZ
    ?GetPIEInstance@FWorldContext@Unreal@RC@@QEAAAEAHXZ
    ?GetPIEInstance@FWorldContext@Unreal@RC@@QEBAAEBHXZ
    ?GetPIEPrefix@FWorldContext@Unreal@RC@@QEAAAEAVFString@23@XZ
    ?GetPIEPrefix@FWorldContext@Unreal@RC@@QEBAAEBVFString@23@XZ
    ?GetPIERemapPrefix@FWorldContext@Unreal@RC@@QEAAAEAVFString@23@XZ
    ?GetPIERemapPrefix@FWorldContext@Unreal@RC@@QEBAAEBVFString@23@XZ
    ?GetParentFuncMap@UClass@Unreal@RC@@QEAAAEAV?$TMap@VFName@Unreal@RC@@PEAVUFunction@23@VFDefaultSetAllocator@23@U?$TDefaultMapHashableKeyFuncs@VFName@Unreal@RC@@PEAVUFunction@23@$0A@@23@@23@XZ
    ?GetParentFuncMap@UClass@Unreal@RC@@QEBAAEBV?$TMap@VFName@Unreal@RC@@PEAVUFunction@23@VFDefaultSetAllocator@23@U?$TDefaultMapHashableKeyFuncs@VFName@Unreal@RC@@PEAVUFunction@23@$0A@@23@@23@XZ
    ?GetParmsSize@UFunction@Unreal@RC@@QEAAAEAGXZ
    ?GetParmsSize@UFunction@Unreal@RC@@QEBAAEBGXZ
    ?GetPathName@FField@Unreal@RC@@QEAA?AV?$basic_string@_WU?$char_traits@_W@std@@V?$allocator@_W@2@@std@@PEAVUObject@23@@Z
    ?GetPathName@UObject@Unreal@RC@@QEBA?AV?$basic_string@_WU?$char_traits@_W@std@@V?$allocator@_W@2@@std@@PEAV123@@Z
    ?GetPathName@UObject@Unreal@RC@@QEBAXPEAV123@AEAV?$basic_string@_WU?$char_traits@_W@std@@V?$allocator@_W@2@@std@@@Z
    ?GetPauseDelay501@UWorld@Unreal@RC@@AEAAAEANXZ
    ?GetPauseDelay501@UWorld@Unreal@RC@@AEBAAEBNXZ
    ?GetPauseDelayBase@UWorld@Unreal@RC@@AEAAAEAMXZ
    ?GetPauseDelayBase@UWorld@Unreal@RC@@AEBAAEBMXZ
    ?GetPendingMapChangeFailureDescription@FWorldContext@Unreal@RC@@QEAAAEAVFString@23@XZ
    ?GetPendingMapChangeFailureDescription@FWorldContext@Unreal@RC@@QEBAAEBVFString@23@XZ
    ?GetPendingVisibilityLock@UWorld@Unreal@RC@@QEAAAEAVFPlatformRWLock@UE@23@XZ
    ?GetPendingVisibilityLock@UWorld@Unreal@RC@@QEBAAEBVFPlatformRWLock@UE@23@XZ
    ?GetPerModuleDataObjects@UWorld@Unreal@RC@@QEAAAEAV?$TArray@V?$TObjectPtr@VUObject@Unreal@RC@@@Unreal@RC@@V?$TSizedDefaultAllocator@$0CA@@23@@23@XZ
    ?GetPerModuleDataObjects@UWorld@Unreal@RC@@QEBAAEBV?$TArray@V?$TObjectPtr@VUObject@Unreal@RC@@@Unreal@RC@@V?$TSizedDefaultAllocator@$0CA@@23@@23@XZ
    ?GetPitch@FRotator@Unreal@RC@@QEAANXZ
    ?GetPitch@FRotator@Unreal@RC@@QEBANXZ
    ?GetPitch_Internal@FRotator@Unreal@RC@@CANAEBU123@@Z
    ?GetPlainNameString@FName@Unreal@RC@@QEAAIAEAY0EAA@_W@Z
    ?GetPlayerNum@UWorld@Unreal@RC@@QEAAAEAHXZ
    ?GetPlayerNum@UWorld@Unreal@RC@@QEBAAEBHXZ
    ?GetPlayerStateClass@AGameMode@Unreal@RC@@QEAAAEAV?$TSubclassOf@VAPlayerState@Unreal@RC@@@23@XZ
    ?GetPlayerStateClass@AGameMode@Unreal@RC@@QEBAAEBV?$TSubclassOf@VAPlayerState@Unreal@RC@@@23@XZ
    ?GetPlayerStateClass@AGameModeBase@Unreal@RC@@QEAAAEAV?$TSubclassOf@VAPlayerState@Unreal@RC@@@23@XZ
    ?GetPlayerStateClass@AGameModeBase@Unreal@RC@@QEBAAEBV?$TSubclassOf@VAPlayerState@Unreal@RC@@@23@XZ
    ?GetPostConstructLink@UStruct@Unreal@RC@@QEAAAEAPEAVFProperty@23@XZ
    ?GetPostConstructLink@UStruct@Unreal@RC@@QEBAAEAPEBVFProperty@23@XZ
    ?GetPostConstructLinkNext@FProperty@Unreal@RC@@QEAAAEAPEAV123@XZ
    ?GetPostConstructLinkNext@FProperty@Unreal@RC@@QEBAAEAPEBV123@XZ
    ?GetPostProcessVolumeCachedSizes@UWorld@Unreal@RC@@QEAAAEAV?$TArray@NV?$TSizedDefaultAllocator@$0CA@@Unreal@RC@@@23@XZ
    ?GetPostProcessVolumeCachedSizes@UWorld@Unreal@RC@@QEBAAEBV?$TArray@NV?$TSizedDefaultAllocator@$0CA@@Unreal@RC@@@23@XZ
    ?GetPreAllocatedObjects@TUObjectArray@Unreal@RC@@QEAAAEAPEAUFUObjectItem@23@XZ
    ?GetPreAllocatedObjects@TUObjectArray@Unreal@RC@@QEBAAEAPEBUFUObjectItem@23@XZ
    ?GetPrefixCPP@UStruct@Unreal@RC@@QEBAPEB_WXZ
    ?GetPreloadDependencies@FField@Unreal@RC@@QEAAXAEAV?$TArray@PEAVUObject@Unreal@RC@@V?$TSizedDefaultAllocator@$0CA@@23@@23@@Z
    ?GetPreloadDependencies@UObject@Unreal@RC@@QEAAXAEAV?$TArray@PEAVUObject@Unreal@RC@@V?$TSizedDefaultAllocator@$0CA@@23@@23@@Z
    ?GetPreparingLevelNames@UWorld@Unreal@RC@@QEAAAEAV?$TArray@VFName@Unreal@RC@@V?$TSizedDefaultAllocator@$0CA@@23@@23@XZ
    ?GetPreparingLevelNames@UWorld@Unreal@RC@@QEBAAEBV?$TArray@VFName@Unreal@RC@@V?$TSizedDefaultAllocator@$0CA@@23@@23@XZ
    ?GetPrestreamPackages@UObject@Unreal@RC@@QEAAXAEAV?$TArray@PEAVUObject@Unreal@RC@@V?$TSizedDefaultAllocator@$0CA@@23@@23@@Z
    ?GetPrimaryAssetId@UObject@Unreal@RC@@QEBA?AUFPrimaryAssetId@23@XZ
    ?GetPrimarySerialNumber@FUObjectArray@Unreal@RC@@QEAAAEAVFThreadSafeCounter@23@XZ
    ?GetPrimarySerialNumber@FUObjectArray@Unreal@RC@@QEBAAEBVFThreadSafeCounter@23@XZ
    ?GetPropertiesSize@UStruct@Unreal@RC@@QEAAAEAHXZ
    ?GetPropertiesSize@UStruct@Unreal@RC@@QEBAAEBHXZ
    ?GetPropertyByName@UObject@Unreal@RC@@QEAAPEAVFProperty@23@PEB_W@Z
    ?GetPropertyByName@UObject@Unreal@RC@@QEAAPEAVFProperty@23@VFName@23@@Z
    ?GetPropertyByNameInChain@UObject@Unreal@RC@@QEAAPEAVFProperty@23@PEB_W@Z
    ?GetPropertyByNameInChain@UObject@Unreal@RC@@QEAAPEAVFProperty@23@VFName@23@@Z
    ?GetPropertyClass@FFieldPathProperty@Unreal@RC@@QEAAAEAPEAVFFieldClass@23@XZ
    ?GetPropertyClass@FFieldPathProperty@Unreal@RC@@QEBAAEAPEBVFFieldClass@23@XZ
    ?GetPropertyClass@FObjectPropertyBase@Unreal@RC@@QEAAAEAV?$TObjectPtr@VUClass@Unreal@RC@@@23@XZ
    ?GetPropertyClass@FObjectPropertyBase@Unreal@RC@@QEBAAEBV?$TObjectPtr@VUClass@Unreal@RC@@@23@XZ
    ?GetPropertyFlags420@FProperty@Unreal@RC@@AEAAAEAW4EPropertyFlags@23@XZ
    ?GetPropertyFlags420@FProperty@Unreal@RC@@AEBAAEBW4EPropertyFlags@23@XZ
    ?GetPropertyFlags@FProperty@Unreal@RC@@QEAAAEAW4EPropertyFlags@23@XZ
    ?GetPropertyFlags@FProperty@Unreal@RC@@QEBAAEBW4EPropertyFlags@23@XZ
    ?GetPropertyFlagsBase@FProperty@Unreal@RC@@AEAAAEA_KXZ
    ?GetPropertyFlagsBase@FProperty@Unreal@RC@@AEBAAEB_KXZ
    ?GetPropertyLink@UStruct@Unreal@RC@@QEAAAEAPEAVFProperty@23@XZ
    ?GetPropertyLink@UStruct@Unreal@RC@@QEBAAEAPEBVFProperty@23@XZ
    ?GetPropertyLinkNext@FProperty@Unreal@RC@@QEAAAEAPEAV123@XZ
    ?GetPropertyLinkNext@FProperty@Unreal@RC@@QEBAAEAPEBV123@XZ
    ?GetPropertyValue@?$TPropertyTypeFundamentals@C@Unreal@RC@@SAAEBCPEBX@Z
    ?GetPropertyValue@?$TPropertyTypeFundamentals@E@Unreal@RC@@SAAEBEPEBX@Z
    ?GetPropertyValue@?$TPropertyTypeFundamentals@F@Unreal@RC@@SAAEBFPEBX@Z
    ?GetPropertyValue@?$TPropertyTypeFundamentals@G@Unreal@RC@@SAAEBGPEBX@Z
    ?GetPropertyValue@?$TPropertyTypeFundamentals@H@Unreal@RC@@SAAEBHPEBX@Z
    ?GetPropertyValue@?$TPropertyTypeFundamentals@I@Unreal@RC@@SAAEBIPEBX@Z
    ?GetPropertyValue@?$TPropertyTypeFundamentals@M@Unreal@RC@@SAAEBMPEBX@Z
    ?GetPropertyValue@?$TPropertyTypeFundamentals@N@Unreal@RC@@SAAEBNPEBX@Z
    ?GetPropertyValue@?$TPropertyTypeFundamentals@PEAVUObject@Unreal@RC@@@Unreal@RC@@SAAEBQEAVUObject@23@PEBX@Z
    ?GetPropertyValue@?$TPropertyTypeFundamentals@UFFieldPath@Unreal@RC@@@Unreal@RC@@SAAEBUFFieldPath@23@PEBX@Z
    ?GetPropertyValue@?$TPropertyTypeFundamentals@UFLazyObjectPtr@Unreal@RC@@@Unreal@RC@@SAAEBUFLazyObjectPtr@23@PEBX@Z
    ?GetPropertyValue@?$TPropertyTypeFundamentals@UFSoftObjectPtr@Unreal@RC@@@Unreal@RC@@SAAEBUFSoftObjectPtr@23@PEBX@Z
    ?GetPropertyValue@?$TPropertyTypeFundamentals@UFSparseDelegate@Unreal@RC@@@Unreal@RC@@SAAEBUFSparseDelegate@23@PEBX@Z
    ?GetPropertyValue@?$TPropertyTypeFundamentals@UFWeakObjectPtr@Unreal@RC@@@Unreal@RC@@SAAEBUFWeakObjectPtr@23@PEBX@Z
    ?GetPropertyValue@?$TPropertyTypeFundamentals@V?$TMulticastScriptDelegate@UFWeakObjectPtr@Unreal@RC@@@Unreal@RC@@@Unreal@RC@@SAAEBV?$TMulticastScriptDelegate@UFWeakObjectPtr@Unreal@RC@@@23@PEBX@Z
    ?GetPropertyValue@?$TPropertyTypeFundamentals@V?$TScriptDelegate@UFWeakObjectPtr@Unreal@RC@@@Unreal@RC@@@Unreal@RC@@SAAEBV?$TScriptDelegate@UFWeakObjectPtr@Unreal@RC@@@23@PEBX@Z
    ?GetPropertyValue@?$TPropertyTypeFundamentals@VFAnsiString@Unreal@RC@@@Unreal@RC@@SAAEBVFAnsiString@23@PEBX@Z
    ?GetPropertyValue@?$TPropertyTypeFundamentals@VFName@Unreal@RC@@@Unreal@RC@@SAAEBVFName@23@PEBX@Z
    ?GetPropertyValue@?$TPropertyTypeFundamentals@VFScriptInterface@Unreal@RC@@@Unreal@RC@@SAAEBVFScriptInterface@23@PEBX@Z
    ?GetPropertyValue@?$TPropertyTypeFundamentals@VFScriptMap@Unreal@RC@@@Unreal@RC@@SAAEBVFScriptMap@23@PEBX@Z
    ?GetPropertyValue@?$TPropertyTypeFundamentals@VFScriptSet@Unreal@RC@@@Unreal@RC@@SAAEBVFScriptSet@23@PEBX@Z
    ?GetPropertyValue@?$TPropertyTypeFundamentals@VFString@Unreal@RC@@@Unreal@RC@@SAAEBVFString@23@PEBX@Z
    ?GetPropertyValue@?$TPropertyTypeFundamentals@VFText@Unreal@RC@@@Unreal@RC@@SAAEBVFText@23@PEBX@Z
    ?GetPropertyValue@?$TPropertyTypeFundamentals@VFUtf8String@Unreal@RC@@@Unreal@RC@@SAAEBVFUtf8String@23@PEBX@Z
    ?GetPropertyValue@?$TPropertyTypeFundamentals@_J@Unreal@RC@@SAAEB_JPEBX@Z
    ?GetPropertyValue@?$TPropertyTypeFundamentals@_K@Unreal@RC@@SAAEB_KPEBX@Z
    ?GetPropertyValue@FBoolProperty@Unreal@RC@@QEAA_NPEBX@Z
    ?GetPropertyValueInContainer@?$TProperty@CVFNumericProperty@Unreal@RC@@@Unreal@RC@@QEAAAEBCPEBXH@Z
    ?GetPropertyValueInContainer@?$TProperty@EVFNumericProperty@Unreal@RC@@@Unreal@RC@@QEAAAEBEPEBXH@Z
    ?GetPropertyValueInContainer@?$TProperty@FVFNumericProperty@Unreal@RC@@@Unreal@RC@@QEAAAEBFPEBXH@Z
    ?GetPropertyValueInContainer@?$TProperty@GVFNumericProperty@Unreal@RC@@@Unreal@RC@@QEAAAEBGPEBXH@Z
    ?GetPropertyValueInContainer@?$TProperty@HVFNumericProperty@Unreal@RC@@@Unreal@RC@@QEAAAEBHPEBXH@Z
    ?GetPropertyValueInContainer@?$TProperty@IVFNumericProperty@Unreal@RC@@@Unreal@RC@@QEAAAEBIPEBXH@Z
    ?GetPropertyValueInContainer@?$TProperty@MVFNumericProperty@Unreal@RC@@@Unreal@RC@@QEAAAEBMPEBXH@Z
    ?GetPropertyValueInContainer@?$TProperty@NVFNumericProperty@Unreal@RC@@@Unreal@RC@@QEAAAEBNPEBXH@Z
    ?GetPropertyValueInContainer@?$TProperty@PEAVUObject@Unreal@RC@@VFObjectPropertyBase@23@@Unreal@RC@@QEAAAEBQEAVUObject@23@PEBXH@Z
    ?GetPropertyValueInContainer@?$TProperty@UFFieldPath@Unreal@RC@@VFProperty@23@@Unreal@RC@@QEAAAEBUFFieldPath@23@PEBXH@Z
    ?GetPropertyValueInContainer@?$TProperty@UFLazyObjectPtr@Unreal@RC@@VFObjectPropertyBase@23@@Unreal@RC@@QEAAAEBUFLazyObjectPtr@23@PEBXH@Z
    ?GetPropertyValueInContainer@?$TProperty@UFSoftObjectPtr@Unreal@RC@@VFObjectPropertyBase@23@@Unreal@RC@@QEAAAEBUFSoftObjectPtr@23@PEBXH@Z
    ?GetPropertyValueInContainer@?$TProperty@UFSparseDelegate@Unreal@RC@@VFMulticastDelegateProperty@23@@Unreal@RC@@QEAAAEBUFSparseDelegate@23@PEBXH@Z
    ?GetPropertyValueInContainer@?$TProperty@UFWeakObjectPtr@Unreal@RC@@VFObjectPropertyBase@23@@Unreal@RC@@QEAAAEBUFWeakObjectPtr@23@PEBXH@Z
    ?GetPropertyValueInContainer@?$TProperty@V?$TMulticastScriptDelegate@UFWeakObjectPtr@Unreal@RC@@@Unreal@RC@@VFMulticastDelegateProperty@23@@Unreal@RC@@QEAAAEBV?$TMulticastScriptDelegate@UFWeakObjectPtr@Unreal@RC@@@23@PEBXH@Z
    ?GetPropertyValueInContainer@?$TProperty@V?$TScriptDelegate@UFWeakObjectPtr@Unreal@RC@@@Unreal@RC@@VFProperty@23@@Unreal@RC@@QEAAAEBV?$TScriptDelegate@UFWeakObjectPtr@Unreal@RC@@@23@PEBXH@Z
    ?GetPropertyValueInContainer@?$TProperty@VFAnsiString@Unreal@RC@@VFProperty@23@@Unreal@RC@@QEAAAEBVFAnsiString@23@PEBXH@Z
    ?GetPropertyValueInContainer@?$TProperty@VFName@Unreal@RC@@VFProperty@23@@Unreal@RC@@QEAAAEBVFName@23@PEBXH@Z
    ?GetPropertyValueInContainer@?$TProperty@VFScriptInterface@Unreal@RC@@VFProperty@23@@Unreal@RC@@QEAAAEBVFScriptInterface@23@PEBXH@Z
    ?GetPropertyValueInContainer@?$TProperty@VFScriptMap@Unreal@RC@@VFProperty@23@@Unreal@RC@@QEAAAEBVFScriptMap@23@PEBXH@Z
    ?GetPropertyValueInContainer@?$TProperty@VFScriptSet@Unreal@RC@@VFProperty@23@@Unreal@RC@@QEAAAEBVFScriptSet@23@PEBXH@Z
    ?GetPropertyValueInContainer@?$TProperty@VFString@Unreal@RC@@VFProperty@23@@Unreal@RC@@QEAAAEBVFString@23@PEBXH@Z
    ?GetPropertyValueInContainer@?$TProperty@VFText@Unreal@RC@@VFProperty@23@@Unreal@RC@@QEAAAEBVFText@23@PEBXH@Z
    ?GetPropertyValueInContainer@?$TProperty@VFUtf8String@Unreal@RC@@VFProperty@23@@Unreal@RC@@QEAAAEBVFUtf8String@23@PEBXH@Z
    ?GetPropertyValueInContainer@?$TProperty@_JVFNumericProperty@Unreal@RC@@@Unreal@RC@@QEAAAEB_JPEBXH@Z
    ?GetPropertyValueInContainer@?$TProperty@_KVFNumericProperty@Unreal@RC@@@Unreal@RC@@QEAAAEB_KPEBXH@Z
    ?GetPropertyValueInContainer@FBoolProperty@Unreal@RC@@QEAA_NPEBXH@Z
    ?GetPropertyValuePtr@?$TPropertyTypeFundamentals@C@Unreal@RC@@SAPEACPEAX@Z
    ?GetPropertyValuePtr@?$TPropertyTypeFundamentals@C@Unreal@RC@@SAPEBCPEBX@Z
    ?GetPropertyValuePtr@?$TPropertyTypeFundamentals@E@Unreal@RC@@SAPEAEPEAX@Z
    ?GetPropertyValuePtr@?$TPropertyTypeFundamentals@E@Unreal@RC@@SAPEBEPEBX@Z
    ?GetPropertyValuePtr@?$TPropertyTypeFundamentals@F@Unreal@RC@@SAPEAFPEAX@Z
    ?GetPropertyValuePtr@?$TPropertyTypeFundamentals@F@Unreal@RC@@SAPEBFPEBX@Z
    ?GetPropertyValuePtr@?$TPropertyTypeFundamentals@G@Unreal@RC@@SAPEAGPEAX@Z
    ?GetPropertyValuePtr@?$TPropertyTypeFundamentals@G@Unreal@RC@@SAPEBGPEBX@Z
    ?GetPropertyValuePtr@?$TPropertyTypeFundamentals@H@Unreal@RC@@SAPEAHPEAX@Z
    ?GetPropertyValuePtr@?$TPropertyTypeFundamentals@H@Unreal@RC@@SAPEBHPEBX@Z
    ?GetPropertyValuePtr@?$TPropertyTypeFundamentals@I@Unreal@RC@@SAPEAIPEAX@Z
    ?GetPropertyValuePtr@?$TPropertyTypeFundamentals@I@Unreal@RC@@SAPEBIPEBX@Z
    ?GetPropertyValuePtr@?$TPropertyTypeFundamentals@M@Unreal@RC@@SAPEAMPEAX@Z
    ?GetPropertyValuePtr@?$TPropertyTypeFundamentals@M@Unreal@RC@@SAPEBMPEBX@Z
    ?GetPropertyValuePtr@?$TPropertyTypeFundamentals@N@Unreal@RC@@SAPEANPEAX@Z
    ?GetPropertyValuePtr@?$TPropertyTypeFundamentals@N@Unreal@RC@@SAPEBNPEBX@Z
    ?GetPropertyValuePtr@?$TPropertyTypeFundamentals@PEAVUObject@Unreal@RC@@@Unreal@RC@@SAPEAPEAVUObject@23@PEAX@Z
    ?GetPropertyValuePtr@?$TPropertyTypeFundamentals@PEAVUObject@Unreal@RC@@@Unreal@RC@@SAPEBQEAVUObject@23@PEBX@Z
    ?GetPropertyValuePtr@?$TPropertyTypeFundamentals@UFFieldPath@Unreal@RC@@@Unreal@RC@@SAPEAUFFieldPath@23@PEAX@Z
    ?GetPropertyValuePtr@?$TPropertyTypeFundamentals@UFFieldPath@Unreal@RC@@@Unreal@RC@@SAPEBUFFieldPath@23@PEBX@Z
    ?GetPropertyValuePtr@?$TPropertyTypeFundamentals@UFLazyObjectPtr@Unreal@RC@@@Unreal@RC@@SAPEAUFLazyObjectPtr@23@PEAX@Z
    ?GetPropertyValuePtr@?$TPropertyTypeFundamentals@UFLazyObjectPtr@Unreal@RC@@@Unreal@RC@@SAPEBUFLazyObjectPtr@23@PEBX@Z
    ?GetPropertyValuePtr@?$TPropertyTypeFundamentals@UFSoftObjectPtr@Unreal@RC@@@Unreal@RC@@SAPEAUFSoftObjectPtr@23@PEAX@Z
    ?GetPropertyValuePtr@?$TPropertyTypeFundamentals@UFSoftObjectPtr@Unreal@RC@@@Unreal@RC@@SAPEBUFSoftObjectPtr@23@PEBX@Z
    ?GetPropertyValuePtr@?$TPropertyTypeFundamentals@UFSparseDelegate@Unreal@RC@@@Unreal@RC@@SAPEAUFSparseDelegate@23@PEAX@Z
    ?GetPropertyValuePtr@?$TPropertyTypeFundamentals@UFSparseDelegate@Unreal@RC@@@Unreal@RC@@SAPEBUFSparseDelegate@23@PEBX@Z
    ?GetPropertyValuePtr@?$TPropertyTypeFundamentals@UFWeakObjectPtr@Unreal@RC@@@Unreal@RC@@SAPEAUFWeakObjectPtr@23@PEAX@Z
    ?GetPropertyValuePtr@?$TPropertyTypeFundamentals@UFWeakObjectPtr@Unreal@RC@@@Unreal@RC@@SAPEBUFWeakObjectPtr@23@PEBX@Z
    ?GetPropertyValuePtr@?$TPropertyTypeFundamentals@V?$TMulticastScriptDelegate@UFWeakObjectPtr@Unreal@RC@@@Unreal@RC@@@Unreal@RC@@SAPEAV?$TMulticastScriptDelegate@UFWeakObjectPtr@Unreal@RC@@@23@PEAX@Z
    ?GetPropertyValuePtr@?$TPropertyTypeFundamentals@V?$TMulticastScriptDelegate@UFWeakObjectPtr@Unreal@RC@@@Unreal@RC@@@Unreal@RC@@SAPEBV?$TMulticastScriptDelegate@UFWeakObjectPtr@Unreal@RC@@@23@PEBX@Z
    ?GetPropertyValuePtr@?$TPropertyTypeFundamentals@V?$TScriptDelegate@UFWeakObjectPtr@Unreal@RC@@@Unreal@RC@@@Unreal@RC@@SAPEAV?$TScriptDelegate@UFWeakObjectPtr@Unreal@RC@@@23@PEAX@Z
    ?GetPropertyValuePtr@?$TPropertyTypeFundamentals@V?$TScriptDelegate@UFWeakObjectPtr@Unreal@RC@@@Unreal@RC@@@Unreal@RC@@SAPEBV?$TScriptDelegate@UFWeakObjectPtr@Unreal@RC@@@23@PEBX@Z
    ?GetPropertyValuePtr@?$TPropertyTypeFundamentals@VFAnsiString@Unreal@RC@@@Unreal@RC@@SAPEAVFAnsiString@23@PEAX@Z
    ?GetPropertyValuePtr@?$TPropertyTypeFundamentals@VFAnsiString@Unreal@RC@@@Unreal@RC@@SAPEBVFAnsiString@23@PEBX@Z
    ?GetPropertyValuePtr@?$TPropertyTypeFundamentals@VFName@Unreal@RC@@@Unreal@RC@@SAPEAVFName@23@PEAX@Z
    ?GetPropertyValuePtr@?$TPropertyTypeFundamentals@VFName@Unreal@RC@@@Unreal@RC@@SAPEBVFName@23@PEBX@Z
    ?GetPropertyValuePtr@?$TPropertyTypeFundamentals@VFScriptInterface@Unreal@RC@@@Unreal@RC@@SAPEAVFScriptInterface@23@PEAX@Z
    ?GetPropertyValuePtr@?$TPropertyTypeFundamentals@VFScriptInterface@Unreal@RC@@@Unreal@RC@@SAPEBVFScriptInterface@23@PEBX@Z
    ?GetPropertyValuePtr@?$TPropertyTypeFundamentals@VFScriptMap@Unreal@RC@@@Unreal@RC@@SAPEAVFScriptMap@23@PEAX@Z
    ?GetPropertyValuePtr@?$TPropertyTypeFundamentals@VFScriptMap@Unreal@RC@@@Unreal@RC@@SAPEBVFScriptMap@23@PEBX@Z
    ?GetPropertyValuePtr@?$TPropertyTypeFundamentals@VFScriptSet@Unreal@RC@@@Unreal@RC@@SAPEAVFScriptSet@23@PEAX@Z
    ?GetPropertyValuePtr@?$TPropertyTypeFundamentals@VFScriptSet@Unreal@RC@@@Unreal@RC@@SAPEBVFScriptSet@23@PEBX@Z
    ?GetPropertyValuePtr@?$TPropertyTypeFundamentals@VFString@Unreal@RC@@@Unreal@RC@@SAPEAVFString@23@PEAX@Z
    ?GetPropertyValuePtr@?$TPropertyTypeFundamentals@VFString@Unreal@RC@@@Unreal@RC@@SAPEBVFString@23@PEBX@Z
    ?GetPropertyValuePtr@?$TPropertyTypeFundamentals@VFText@Unreal@RC@@@Unreal@RC@@SAPEAVFText@23@PEAX@Z
    ?GetPropertyValuePtr@?$TPropertyTypeFundamentals@VFText@Unreal@RC@@@Unreal@RC@@SAPEBVFText@23@PEBX@Z
    ?GetPropertyValuePtr@?$TPropertyTypeFundamentals@VFUtf8String@Unreal@RC@@@Unreal@RC@@SAPEAVFUtf8String@23@PEAX@Z
    ?GetPropertyValuePtr@?$TPropertyTypeFundamentals@VFUtf8String@Unreal@RC@@@Unreal@RC@@SAPEBVFUtf8String@23@PEBX@Z
    ?GetPropertyValuePtr@?$TPropertyTypeFundamentals@_J@Unreal@RC@@SAPEA_JPEAX@Z
    ?GetPropertyValuePtr@?$TPropertyTypeFundamentals@_J@Unreal@RC@@SAPEB_JPEBX@Z
    ?GetPropertyValuePtr@?$TPropertyTypeFundamentals@_K@Unreal@RC@@SAPEA_KPEAX@Z
    ?GetPropertyValuePtr@?$TPropertyTypeFundamentals@_K@Unreal@RC@@SAPEB_KPEBX@Z
    ?GetPropertyValuePtrInContainer@?$TProperty@CVFNumericProperty@Unreal@RC@@@Unreal@RC@@QEAAPEACPEAXH@Z
    ?GetPropertyValuePtrInContainer@?$TProperty@CVFNumericProperty@Unreal@RC@@@Unreal@RC@@QEAAPEBCPEBXH@Z
    ?GetPropertyValuePtrInContainer@?$TProperty@EVFNumericProperty@Unreal@RC@@@Unreal@RC@@QEAAPEAEPEAXH@Z
    ?GetPropertyValuePtrInContainer@?$TProperty@EVFNumericProperty@Unreal@RC@@@Unreal@RC@@QEAAPEBEPEBXH@Z
    ?GetPropertyValuePtrInContainer@?$TProperty@FVFNumericProperty@Unreal@RC@@@Unreal@RC@@QEAAPEAFPEAXH@Z
    ?GetPropertyValuePtrInContainer@?$TProperty@FVFNumericProperty@Unreal@RC@@@Unreal@RC@@QEAAPEBFPEBXH@Z
    ?GetPropertyValuePtrInContainer@?$TProperty@GVFNumericProperty@Unreal@RC@@@Unreal@RC@@QEAAPEAGPEAXH@Z
    ?GetPropertyValuePtrInContainer@?$TProperty@GVFNumericProperty@Unreal@RC@@@Unreal@RC@@QEAAPEBGPEBXH@Z
    ?GetPropertyValuePtrInContainer@?$TProperty@HVFNumericProperty@Unreal@RC@@@Unreal@RC@@QEAAPEAHPEAXH@Z
    ?GetPropertyValuePtrInContainer@?$TProperty@HVFNumericProperty@Unreal@RC@@@Unreal@RC@@QEAAPEBHPEBXH@Z
    ?GetPropertyValuePtrInContainer@?$TProperty@IVFNumericProperty@Unreal@RC@@@Unreal@RC@@QEAAPEAIPEAXH@Z
    ?GetPropertyValuePtrInContainer@?$TProperty@IVFNumericProperty@Unreal@RC@@@Unreal@RC@@QEAAPEBIPEBXH@Z
    ?GetPropertyValuePtrInContainer@?$TProperty@MVFNumericProperty@Unreal@RC@@@Unreal@RC@@QEAAPEAMPEAXH@Z
    ?GetPropertyValuePtrInContainer@?$TProperty@MVFNumericProperty@Unreal@RC@@@Unreal@RC@@QEAAPEBMPEBXH@Z
    ?GetPropertyValuePtrInContainer@?$TProperty@NVFNumericProperty@Unreal@RC@@@Unreal@RC@@QEAAPEANPEAXH@Z
    ?GetPropertyValuePtrInContainer@?$TProperty@NVFNumericProperty@Unreal@RC@@@Unreal@RC@@QEAAPEBNPEBXH@Z
    ?GetPropertyValuePtrInContainer@?$TProperty@PEAVUObject@Unreal@RC@@VFObjectPropertyBase@23@@Unreal@RC@@QEAAPEAPEAVUObject@23@PEAXH@Z
    ?GetPropertyValuePtrInContainer@?$TProperty@PEAVUObject@Unreal@RC@@VFObjectPropertyBase@23@@Unreal@RC@@QEAAPEBQEAVUObject@23@PEBXH@Z
    ?GetPropertyValuePtrInContainer@?$TProperty@UFFieldPath@Unreal@RC@@VFProperty@23@@Unreal@RC@@QEAAPEAUFFieldPath@23@PEAXH@Z
    ?GetPropertyValuePtrInContainer@?$TProperty@UFFieldPath@Unreal@RC@@VFProperty@23@@Unreal@RC@@QEAAPEBUFFieldPath@23@PEBXH@Z
    ?GetPropertyValuePtrInContainer@?$TProperty@UFLazyObjectPtr@Unreal@RC@@VFObjectPropertyBase@23@@Unreal@RC@@QEAAPEAUFLazyObjectPtr@23@PEAXH@Z
    ?GetPropertyValuePtrInContainer@?$TProperty@UFLazyObjectPtr@Unreal@RC@@VFObjectPropertyBase@23@@Unreal@RC@@QEAAPEBUFLazyObjectPtr@23@PEBXH@Z
    ?GetPropertyValuePtrInContainer@?$TProperty@UFSoftObjectPtr@Unreal@RC@@VFObjectPropertyBase@23@@Unreal@RC@@QEAAPEAUFSoftObjectPtr@23@PEAXH@Z
    ?GetPropertyValuePtrInContainer@?$TProperty@UFSoftObjectPtr@Unreal@RC@@VFObjectPropertyBase@23@@Unreal@RC@@QEAAPEBUFSoftObjectPtr@23@PEBXH@Z
    ?GetPropertyValuePtrInContainer@?$TProperty@UFSparseDelegate@Unreal@RC@@VFMulticastDelegateProperty@23@@Unreal@RC@@QEAAPEAUFSparseDelegate@23@PEAXH@Z
    ?GetPropertyValuePtrInContainer@?$TProperty@UFSparseDelegate@Unreal@RC@@VFMulticastDelegateProperty@23@@Unreal@RC@@QEAAPEBUFSparseDelegate@23@PEBXH@Z
    ?GetPropertyValuePtrInContainer@?$TProperty@UFWeakObjectPtr@Unreal@RC@@VFObjectPropertyBase@23@@Unreal@RC@@QEAAPEAUFWeakObjectPtr@23@PEAXH@Z
    ?GetPropertyValuePtrInContainer@?$TProperty@UFWeakObjectPtr@Unreal@RC@@VFObjectPropertyBase@23@@Unreal@RC@@QEAAPEBUFWeakObjectPtr@23@PEBXH@Z
    ?GetPropertyValuePtrInContainer@?$TProperty@V?$TMulticastScriptDelegate@UFWeakObjectPtr@Unreal@RC@@@Unreal@RC@@VFMulticastDelegateProperty@23@@Unreal@RC@@QEAAPEAV?$TMulticastScriptDelegate@UFWeakObjectPtr@Unreal@RC@@@23@PEAXH@Z
    ?GetPropertyValuePtrInContainer@?$TProperty@V?$TMulticastScriptDelegate@UFWeakObjectPtr@Unreal@RC@@@Unreal@RC@@VFMulticastDelegateProperty@23@@Unreal@RC@@QEAAPEBV?$TMulticastScriptDelegate@UFWeakObjectPtr@Unreal@RC@@@23@PEBXH@Z
    ?GetPropertyValuePtrInContainer@?$TProperty@V?$TScriptDelegate@UFWeakObjectPtr@Unreal@RC@@@Unreal@RC@@VFProperty@23@@Unreal@RC@@QEAAPEAV?$TScriptDelegate@UFWeakObjectPtr@Unreal@RC@@@23@PEAXH@Z
    ?GetPropertyValuePtrInContainer@?$TProperty@V?$TScriptDelegate@UFWeakObjectPtr@Unreal@RC@@@Unreal@RC@@VFProperty@23@@Unreal@RC@@QEAAPEBV?$TScriptDelegate@UFWeakObjectPtr@Unreal@RC@@@23@PEBXH@Z
    ?GetPropertyValuePtrInContainer@?$TProperty@VFAnsiString@Unreal@RC@@VFProperty@23@@Unreal@RC@@QEAAPEAVFAnsiString@23@PEAXH@Z
    ?GetPropertyValuePtrInContainer@?$TProperty@VFAnsiString@Unreal@RC@@VFProperty@23@@Unreal@RC@@QEAAPEBVFAnsiString@23@PEBXH@Z
    ?GetPropertyValuePtrInContainer@?$TProperty@VFName@Unreal@RC@@VFProperty@23@@Unreal@RC@@QEAAPEAVFName@23@PEAXH@Z
    ?GetPropertyValuePtrInContainer@?$TProperty@VFName@Unreal@RC@@VFProperty@23@@Unreal@RC@@QEAAPEBVFName@23@PEBXH@Z
    ?GetPropertyValuePtrInContainer@?$TProperty@VFScriptInterface@Unreal@RC@@VFProperty@23@@Unreal@RC@@QEAAPEAVFScriptInterface@23@PEAXH@Z
    ?GetPropertyValuePtrInContainer@?$TProperty@VFScriptInterface@Unreal@RC@@VFProperty@23@@Unreal@RC@@QEAAPEBVFScriptInterface@23@PEBXH@Z
    ?GetPropertyValuePtrInContainer@?$TProperty@VFScriptMap@Unreal@RC@@VFProperty@23@@Unreal@RC@@QEAAPEAVFScriptMap@23@PEAXH@Z
    ?GetPropertyValuePtrInContainer@?$TProperty@VFScriptMap@Unreal@RC@@VFProperty@23@@Unreal@RC@@QEAAPEBVFScriptMap@23@PEBXH@Z
    ?GetPropertyValuePtrInContainer@?$TProperty@VFScriptSet@Unreal@RC@@VFProperty@23@@Unreal@RC@@QEAAPEAVFScriptSet@23@PEAXH@Z
    ?GetPropertyValuePtrInContainer@?$TProperty@VFScriptSet@Unreal@RC@@VFProperty@23@@Unreal@RC@@QEAAPEBVFScriptSet@23@PEBXH@Z
    ?GetPropertyValuePtrInContainer@?$TProperty@VFString@Unreal@RC@@VFProperty@23@@Unreal@RC@@QEAAPEAVFString@23@PEAXH@Z
    ?GetPropertyValuePtrInContainer@?$TProperty@VFString@Unreal@RC@@VFProperty@23@@Unreal@RC@@QEAAPEBVFString@23@PEBXH@Z
    ?GetPropertyValuePtrInContainer@?$TProperty@VFText@Unreal@RC@@VFProperty@23@@Unreal@RC@@QEAAPEAVFText@23@PEAXH@Z
    ?GetPropertyValuePtrInContainer@?$TProperty@VFText@Unreal@RC@@VFProperty@23@@Unreal@RC@@QEAAPEBVFText@23@PEBXH@Z
    ?GetPropertyValuePtrInContainer@?$TProperty@VFUtf8String@Unreal@RC@@VFProperty@23@@Unreal@RC@@QEAAPEAVFUtf8String@23@PEAXH@Z
    ?GetPropertyValuePtrInContainer@?$TProperty@VFUtf8String@Unreal@RC@@VFProperty@23@@Unreal@RC@@QEAAPEBVFUtf8String@23@PEBXH@Z
    ?GetPropertyValuePtrInContainer@?$TProperty@_JVFNumericProperty@Unreal@RC@@@Unreal@RC@@QEAAPEA_JPEAXH@Z
    ?GetPropertyValuePtrInContainer@?$TProperty@_JVFNumericProperty@Unreal@RC@@@Unreal@RC@@QEAAPEB_JPEBXH@Z
    ?GetPropertyValuePtrInContainer@?$TProperty@_KVFNumericProperty@Unreal@RC@@@Unreal@RC@@QEAAPEA_KPEAXH@Z
    ?GetPropertyValuePtrInContainer@?$TProperty@_KVFNumericProperty@Unreal@RC@@@Unreal@RC@@QEAAPEB_KPEBXH@Z
    ?GetRPCId@UFunction@Unreal@RC@@QEAAAEAGXZ
    ?GetRPCId@UFunction@Unreal@RC@@QEBAAEBGXZ
    ?GetRPCResponseId@UFunction@Unreal@RC@@QEAAAEAGXZ
    ?GetRPCResponseId@UFunction@Unreal@RC@@QEBAAEBGXZ
    ?GetRawPointer@FFieldVariant@Unreal@RC@@QEBAPEAXXZ
    ?GetRealTimeSeconds501@UWorld@Unreal@RC@@AEAAAEANXZ
    ?GetRealTimeSeconds501@UWorld@Unreal@RC@@AEBAAEBNXZ
    ?GetRealTimeSecondsBase@UWorld@Unreal@RC@@AEAAAEAMXZ
    ?GetRealTimeSecondsBase@UWorld@Unreal@RC@@AEBAAEBMXZ
    ?GetRefCount@FUObjectItem@Unreal@RC@@QEAAAEAHXZ
    ?GetRefCount@FUObjectItem@Unreal@RC@@QEBAAEBHXZ
    ?GetRefCountInternal@FUObjectItem@Unreal@RC@@AEAAHXZ
    ?GetRefCountInternal@FUObjectItem@Unreal@RC@@AEBAHXZ
    ?GetRefLink@UStruct@Unreal@RC@@QEAAAEAPEAVFProperty@23@XZ
    ?GetRefLink@UStruct@Unreal@RC@@QEBAAEAPEBVFProperty@23@XZ
    ?GetReferenceSchema@UClass@Unreal@RC@@QEAAAEAVFSchemaOwner@GC@UE@23@XZ
    ?GetReferenceSchema@UClass@Unreal@RC@@QEBAAEBVFSchemaOwner@GC@UE@23@XZ
    ?GetReferenceTokenStream@UClass@Unreal@RC@@QEAAAEAUFGCReferenceTokenStream@23@XZ
    ?GetReferenceTokenStream@UClass@Unreal@RC@@QEBAAEBUFGCReferenceTokenStream@23@XZ
    ?GetRemoteId@FUObjectItem@Unreal@RC@@QEAAAEAEXZ
    ?GetRemoteId@FUObjectItem@Unreal@RC@@QEBAAEBEXZ
    ?GetRepIndex@FProperty@Unreal@RC@@QEAAAEAGXZ
    ?GetRepIndex@FProperty@Unreal@RC@@QEBAAEBGXZ
    ?GetRepNotifyFunc@FProperty@Unreal@RC@@QEAAAEAVFName@23@XZ
    ?GetRepNotifyFunc@FProperty@Unreal@RC@@QEBAAEBVFName@23@XZ
    ?GetRepOffset@UFunction@Unreal@RC@@QEAAAEAGXZ
    ?GetRepOffset@UFunction@Unreal@RC@@QEBAAEBGXZ
    ?GetResourceSizeEx@UObject@Unreal@RC@@QEAAXAEAPEAX@Z
    ?GetRestoreForUObjectOverwrite@UObject@Unreal@RC@@QEAAPEAPEAXXZ
    ?GetReturnProperty@UFunction@Unreal@RC@@QEAAPEAVFProperty@23@XZ
    ?GetReturnValueOffset@ReflectedFunctionBase@Unreal@RC@@QEAAHXZ
    ?GetReturnValueOffset@UFunction@Unreal@RC@@QEAAAEAGXZ
    ?GetReturnValueOffset@UFunction@Unreal@RC@@QEBAAEBGXZ
    ?GetRoll@FRotator@Unreal@RC@@QEAANXZ
    ?GetRoll@FRotator@Unreal@RC@@QEBANXZ
    ?GetRoll_Internal@FRotator@Unreal@RC@@CANAEBU123@@Z
    ?GetRotation@FTransform@Unreal@RC@@QEAAAEAUFQuat@23@XZ
    ?GetRowMap@UDataTable@Unreal@RC@@QEAAAEAV?$TMap@VFName@Unreal@RC@@PEAEVFDefaultSetAllocator@23@U?$TDefaultMapHashableKeyFuncs@VFName@Unreal@RC@@PEAE$0A@@23@@23@XZ
    ?GetRowMap@UDataTable@Unreal@RC@@QEBAAEBV?$TMap@VFName@Unreal@RC@@PEAEVFDefaultSetAllocator@23@U?$TDefaultMapHashableKeyFuncs@VFName@Unreal@RC@@PEAE$0A@@23@@23@XZ
    ?GetRowNames@UDataTable@Unreal@RC@@QEBA?AV?$TArray@VFName@Unreal@RC@@V?$TSizedDefaultAllocator@$0CA@@23@@23@XZ
    ?GetRowStruct@UDataTable@Unreal@RC@@QEAAAEAV?$TObjectPtr@VUScriptStruct@Unreal@RC@@@23@XZ
    ?GetRowStruct@UDataTable@Unreal@RC@@QEBAAEBV?$TObjectPtr@VUScriptStruct@Unreal@RC@@@23@XZ
    ?GetRunAsDedicated@FWorldContext@Unreal@RC@@QEAAAEA_NXZ
    ?GetRunAsDedicated@FWorldContext@Unreal@RC@@QEBAAEB_NXZ
    ?GetScale3D@FTransform@Unreal@RC@@QEAAAEAUFVector@23@XZ
    ?GetScript@UStruct@Unreal@RC@@QEAAAEAV?$TArray@EV?$TSizedDefaultAllocator@$0CA@@Unreal@RC@@@23@XZ
    ?GetScript@UStruct@Unreal@RC@@QEBAAEBV?$TArray@EV?$TSizedDefaultAllocator@$0CA@@Unreal@RC@@@23@XZ
    ?GetScriptAndPropertyObjectReferences@UStruct@Unreal@RC@@QEAAAEAV?$TArray@V?$TObjectPtr@VUObject@Unreal@RC@@@Unreal@RC@@V?$TSizedDefaultAllocator@$0CA@@23@@23@XZ
    ?GetScriptAndPropertyObjectReferences@UStruct@Unreal@RC@@QEBAAEBV?$TArray@V?$TObjectPtr@VUObject@Unreal@RC@@@Unreal@RC@@V?$TSizedDefaultAllocator@$0CA@@23@@23@XZ
    ?GetScriptObjectReferences@UStruct@Unreal@RC@@QEAAAEAV?$TArray@PEAVUObject@Unreal@RC@@V?$TSizedDefaultAllocator@$0CA@@23@@23@XZ
    ?GetScriptObjectReferences@UStruct@Unreal@RC@@QEBAAEBV?$TArray@PEAVUObject@Unreal@RC@@V?$TSizedDefaultAllocator@$0CA@@23@@23@XZ
    ?GetSerialNumber@FUObjectItem@Unreal@RC@@QEAAAEAHXZ
    ?GetSerialNumber@FUObjectItem@Unreal@RC@@QEBAAEBHXZ
    ?GetServerStatReplicator@AGameModeBase@Unreal@RC@@QEAAAEAV?$TObjectPtr@VAServerStatReplicator@Unreal@RC@@@23@XZ
    ?GetServerStatReplicator@AGameModeBase@Unreal@RC@@QEBAAEBV?$TObjectPtr@VAServerStatReplicator@Unreal@RC@@@23@XZ
    ?GetServerStatReplicatorClass@AGameModeBase@Unreal@RC@@QEAAAEAV?$TSubclassOf@VAServerStatReplicator@Unreal@RC@@@23@XZ
    ?GetServerStatReplicatorClass@AGameModeBase@Unreal@RC@@QEBAAEBV?$TSubclassOf@VAServerStatReplicator@Unreal@RC@@@23@XZ
    ?GetSetLayout507@FSetProperty@Unreal@RC@@AEAAAEAUFScriptSetLayout@23@XZ
    ?GetSetLayout507@FSetProperty@Unreal@RC@@AEBAAEBUFScriptSetLayout@23@XZ
    ?GetSetLayout@FSetProperty@Unreal@RC@@QEAAAEAUFScriptSetLayout@23@XZ
    ?GetSetLayout@FSetProperty@Unreal@RC@@QEBAAEBUFScriptSetLayout@23@XZ
    ?GetSetLayoutBase@FSetProperty@Unreal@RC@@AEAAAEAUFScriptSetLayout@23@XZ
    ?GetSetLayoutBase@FSetProperty@Unreal@RC@@AEBAAEBUFScriptSetLayout@23@XZ
    ?GetSignatureFunction@FDelegateProperty@Unreal@RC@@QEAAAEAV?$TObjectPtr@VUFunction@Unreal@RC@@@23@XZ
    ?GetSignatureFunction@FDelegateProperty@Unreal@RC@@QEBAAEBV?$TObjectPtr@VUFunction@Unreal@RC@@@23@XZ
    ?GetSignatureFunction@FMulticastDelegateProperty@Unreal@RC@@QEAAAEAV?$TObjectPtr@VUFunction@Unreal@RC@@@23@XZ
    ?GetSignatureFunction@FMulticastDelegateProperty@Unreal@RC@@QEBAAEBV?$TObjectPtr@VUFunction@Unreal@RC@@@23@XZ
    ?GetSignedIntPropertyValue@FNumericProperty@Unreal@RC@@QEAA_JPEAX@Z
    ?GetSize@FProperty@Unreal@RC@@QEAAHXZ
    ?GetSize@FProperty@Unreal@RC@@QEBAHXZ
    ?GetSize@ICppStructOps@UScriptStruct@Unreal@RC@@QEAAAEBHXZ
    ?GetSize@ICppStructOps@UScriptStruct@Unreal@RC@@QEBAAEBHXZ
    ?GetSize@UScriptStruct@Unreal@RC@@QEAAHXZ
    ?GetSparseClassData@UClass@Unreal@RC@@QEAAAEAPEAXXZ
    ?GetSparseClassData@UClass@Unreal@RC@@QEBAAEAPEBXXZ
    ?GetSparseClassDataStruct@UClass@Unreal@RC@@QEAAAEAV?$TObjectPtr@VUScriptStruct@Unreal@RC@@@23@XZ
    ?GetSparseClassDataStruct@UClass@Unreal@RC@@QEBAAEBV?$TObjectPtr@VUScriptStruct@Unreal@RC@@@23@XZ
    ?GetSparseClassDataStruct@UObject@Unreal@RC@@QEBAPEAVUScriptStruct@23@XZ
    ?GetSpectatorClass@AGameMode@Unreal@RC@@QEAAAEAV?$TSubclassOf@VASpectatorPawn@Unreal@RC@@@23@XZ
    ?GetSpectatorClass@AGameMode@Unreal@RC@@QEBAAEBV?$TSubclassOf@VASpectatorPawn@Unreal@RC@@@23@XZ
    ?GetSpectatorClass@AGameModeBase@Unreal@RC@@QEAAAEAV?$TSubclassOf@VASpectatorPawn@Unreal@RC@@@23@XZ
    ?GetSpectatorClass@AGameModeBase@Unreal@RC@@QEBAAEBV?$TSubclassOf@VASpectatorPawn@Unreal@RC@@@23@XZ
    ?GetStreamingLevelsPrefix@UWorld@Unreal@RC@@QEAAAEAVFString@23@XZ
    ?GetStreamingLevelsPrefix@UWorld@Unreal@RC@@QEBAAEBVFString@23@XZ
    ?GetStreamingVolumeUpdateDelay@UWorld@Unreal@RC@@QEAAAEAHXZ
    ?GetStreamingVolumeUpdateDelay@UWorld@Unreal@RC@@QEBAAEBHXZ
    ?GetStruct@FStructProperty@Unreal@RC@@QEAAAEAV?$TObjectPtr@VUScriptStruct@Unreal@RC@@@23@XZ
    ?GetStruct@FStructProperty@Unreal@RC@@QEBAAEBV?$TObjectPtr@VUScriptStruct@Unreal@RC@@@23@XZ
    ?GetStructFlags@UScriptStruct@Unreal@RC@@QEAAAEAW4EStructFlags@23@XZ
    ?GetStructFlags@UScriptStruct@Unreal@RC@@QEBAAEBW4EStructFlags@23@XZ
    ?GetStructStateFlags@UStruct@Unreal@RC@@QEAAAEAU?$atomic@G@std@@XZ
    ?GetStructStateFlags@UStruct@Unreal@RC@@QEBAAEBU?$atomic@G@std@@XZ
    ?GetStructureSize@UStruct@Unreal@RC@@QEBAHXZ
    ?GetSubobjectsWithStableNamesForNetworking@UObject@Unreal@RC@@QEAAXAEAV?$TArray@PEAVUObject@Unreal@RC@@V?$TSizedDefaultAllocator@$0CA@@23@@23@@Z
    ?GetSuperClass@FFieldClass@Unreal@RC@@QEAAAEAPEAV123@XZ
    ?GetSuperClass@FFieldClass@Unreal@RC@@QEBAAEAPEBV123@XZ
    ?GetSuperClass@FFieldClassVariant@Unreal@RC@@QEBA?AV123@XZ
    ?GetSuperClass@UClass@Unreal@RC@@QEAAPEAV123@XZ
    ?GetSuperClass@UClass@Unreal@RC@@QEBAPEBV123@XZ
    ?GetSuperFuncMap@UClass@Unreal@RC@@QEAAAEAV?$TMap@VFName@Unreal@RC@@PEAVUFunction@23@VFDefaultSetAllocator@23@U?$TDefaultMapHashableKeyFuncs@VFName@Unreal@RC@@PEAVUFunction@23@$0A@@23@@23@XZ
    ?GetSuperFuncMap@UClass@Unreal@RC@@QEBAAEBV?$TMap@VFName@Unreal@RC@@PEAVUFunction@23@VFDefaultSetAllocator@23@U?$TDefaultMapHashableKeyFuncs@VFName@Unreal@RC@@PEAVUFunction@23@$0A@@23@@23@XZ
    ?GetSuperScriptStruct@UScriptStruct@Unreal@RC@@QEAAPEAV123@XZ
    ?GetSuperStruct507@UStruct@Unreal@RC@@AEAAAEAV?$TObjectPtr@VUStruct@Unreal@RC@@@23@XZ
    ?GetSuperStruct507@UStruct@Unreal@RC@@AEBAAEBV?$TObjectPtr@VUStruct@Unreal@RC@@@23@XZ
    ?GetSuperStruct@UStruct@Unreal@RC@@QEAAAEAPEAV123@XZ
    ?GetSuperStruct@UStruct@Unreal@RC@@QEBAAEAPEBV123@XZ
    ?GetSuperStructBase@UStruct@Unreal@RC@@AEAAAEAU?$TNonAccessTrackedObjectPtr@VUStruct@Unreal@RC@@@ObjectPtr_Private@23@XZ
    ?GetSuperStructBase@UStruct@Unreal@RC@@AEBAAEBU?$TNonAccessTrackedObjectPtr@VUStruct@Unreal@RC@@@ObjectPtr_Private@23@XZ
    ?GetThisCurrentWorld@FWorldContext@Unreal@RC@@QEAAAEAV?$TObjectPtr@VUWorld@Unreal@RC@@@23@XZ
    ?GetThisCurrentWorld@FWorldContext@Unreal@RC@@QEBAAEBV?$TObjectPtr@VUWorld@Unreal@RC@@@23@XZ
    ?GetTimeSeconds501@UWorld@Unreal@RC@@AEAAAEANXZ
    ?GetTimeSeconds501@UWorld@Unreal@RC@@AEBAAEBNXZ
    ?GetTimeSecondsBase@UWorld@Unreal@RC@@AEAAAEAMXZ
    ?GetTimeSecondsBase@UWorld@Unreal@RC@@AEBAAEBMXZ
    ?GetTimeSinceLastPendingKillPurge@UWorld@Unreal@RC@@QEAAAEAMXZ
    ?GetTimeSinceLastPendingKillPurge@UWorld@Unreal@RC@@QEBAAEBMXZ
    ?GetTransform@AActor@Unreal@RC@@QEAA?AUFTransform@23@XZ
    ?GetTranslation@FTransform@Unreal@RC@@QEAAAEAUFVector@23@XZ
    ?GetTravelType@FWorldContext@Unreal@RC@@QEAAAEAEXZ
    ?GetTravelType@FWorldContext@Unreal@RC@@QEBAAEBEXZ
    ?GetTravelURL@FWorldContext@Unreal@RC@@QEAAAEAVFString@23@XZ
    ?GetTravelURL@FWorldContext@Unreal@RC@@QEBAAEBVFString@23@XZ
    ?GetTypeHash@Unreal@RC@@YAIUFNameEntryId@12@@Z
    ?GetTypeHash@Unreal@RC@@YAIVFName@12@@Z
    ?GetTypedOuter@UObject@Unreal@RC@@QEAAPEAV123@PEAVUClass@23@@Z
    ?GetTypedOwner@FField@Unreal@RC@@QEAAPEAVUObject@23@PEAVUClass@23@@Z
    ?GetUObject@FUObjectItem@Unreal@RC@@QEBAPEAVUObject@23@XZ
    ?GetUObjectCreateListeners@FUObjectArray@Unreal@RC@@QEAAAEAV?$TArray@PEAVFUObjectCreateListener@Unreal@RC@@V?$TSizedDefaultAllocator@$0CA@@23@@23@XZ
    ?GetUObjectCreateListeners@FUObjectArray@Unreal@RC@@QEBAAEBV?$TArray@PEAVFUObjectCreateListener@Unreal@RC@@V?$TSizedDefaultAllocator@$0CA@@23@@23@XZ
    ?GetUObjectDeleteListeners@FUObjectArray@Unreal@RC@@QEAAAEAV?$TArray@PEAVFUObjectDeleteListener@Unreal@RC@@V?$TSizedDefaultAllocator@$0CA@@23@@23@XZ
    ?GetUObjectDeleteListeners@FUObjectArray@Unreal@RC@@QEBAAEBV?$TArray@PEAVFUObjectDeleteListener@Unreal@RC@@V?$TSizedDefaultAllocator@$0CA@@23@@23@XZ
    ?GetURL@UWorld@Unreal@RC@@QEAAAEAUFURL@23@XZ
    ?GetURL@UWorld@Unreal@RC@@QEBAAEBUFURL@23@XZ
    ?GetUberGraphFramePointerProperty@UClass@Unreal@RC@@QEAAAEAPEAVFStructProperty@23@XZ
    ?GetUberGraphFramePointerProperty@UClass@Unreal@RC@@QEBAAEAPEBVFStructProperty@23@XZ
    ?GetUnderlyingProp@FEnumProperty@Unreal@RC@@QEAAAEAPEAVFNumericProperty@23@XZ
    ?GetUnderlyingProp@FEnumProperty@Unreal@RC@@QEBAAEAPEBVFNumericProperty@23@XZ
    ?GetUnderlyingProperty@FEnumProperty@Unreal@RC@@QEAAPEAVFNumericProperty@23@XZ
    ?GetUniqueNameIndexCounter@FFieldClass@Unreal@RC@@QEAAAEAU?$atomic@H@std@@XZ
    ?GetUniqueNameIndexCounter@FFieldClass@Unreal@RC@@QEBAAEBU?$atomic@H@std@@XZ
    ?GetUnpausedTimeSeconds501@UWorld@Unreal@RC@@AEAAAEANXZ
    ?GetUnpausedTimeSeconds501@UWorld@Unreal@RC@@AEBAAEBNXZ
    ?GetUnpausedTimeSecondsBase@UWorld@Unreal@RC@@AEAAAEAMXZ
    ?GetUnpausedTimeSecondsBase@UWorld@Unreal@RC@@AEBAAEBMXZ
    ?GetUnqiueNameIndexCounter@FFieldClass@Unreal@RC@@QEAAAEAVFThreadSafeCounter@23@XZ
    ?GetUnqiueNameIndexCounter@FFieldClass@Unreal@RC@@QEBAAEBVFThreadSafeCounter@23@XZ
    ?GetUnresolvedScriptProperties@UStruct@Unreal@RC@@QEAAAEAPEAV?$TArray@U?$TTuple@U?$TFieldPath@VFField@Unreal@RC@@@Unreal@RC@@H@Unreal@RC@@V?$TSizedDefaultAllocator@$0CA@@23@@23@XZ
    ?GetUnresolvedScriptProperties@UStruct@Unreal@RC@@QEBAAEAPEBV?$TArray@U?$TTuple@U?$TFieldPath@VFField@Unreal@RC@@@Unreal@RC@@H@Unreal@RC@@V?$TSizedDefaultAllocator@$0CA@@23@@23@XZ
    ?GetUnsignedIntPropertyValue@FNumericProperty@Unreal@RC@@QEAA_KPEBX@Z
    ?GetValueAt@FNameData@UEnum@Unreal@RC@@QEBA_JH@Z
    ?GetValuePointerForRead@FOptionalProperty@Unreal@RC@@QEBAPEBXPEBX@Z
    ?GetValuePointerForRead@FOptionalPropertyLayout@Unreal@RC@@QEBAPEBXPEBX@Z
    ?GetValuePointerForReadIfSet@FOptionalProperty@Unreal@RC@@QEBAPEBXPEBX@Z
    ?GetValuePointerForReadIfSet@FOptionalPropertyLayout@Unreal@RC@@QEBAPEBXPEBX@Z
    ?GetValuePointerForReadOrReplace@FOptionalProperty@Unreal@RC@@QEBAPEAXPEAX@Z
    ?GetValuePointerForReadOrReplace@FOptionalProperty@Unreal@RC@@QEBAPEBXPEBX@Z
    ?GetValuePointerForReadOrReplace@FOptionalPropertyLayout@Unreal@RC@@QEBAPEAXPEAX@Z
    ?GetValuePointerForReadOrReplace@FOptionalPropertyLayout@Unreal@RC@@QEBAPEBXPEBX@Z
    ?GetValuePointerForReadOrReplaceIfSet@FOptionalProperty@Unreal@RC@@QEBAPEAXPEAX@Z
    ?GetValuePointerForReadOrReplaceIfSet@FOptionalProperty@Unreal@RC@@QEBAPEBXPEBX@Z
    ?GetValuePointerForReadOrReplaceIfSet@FOptionalPropertyLayout@Unreal@RC@@QEBAPEAXPEAX@Z
    ?GetValuePointerForReadOrReplaceIfSet@FOptionalPropertyLayout@Unreal@RC@@QEBAPEBXPEBX@Z
    ?GetValuePointerForReplace@FOptionalProperty@Unreal@RC@@QEBAPEAXPEAX@Z
    ?GetValuePointerForReplace@FOptionalPropertyLayout@Unreal@RC@@QEBAPEAXPEAX@Z
    ?GetValuePointerForReplaceIfSet@FOptionalProperty@Unreal@RC@@QEBAPEAXPEAX@Z
    ?GetValuePointerForReplaceIfSet@FOptionalPropertyLayout@Unreal@RC@@QEBAPEAXPEAX@Z
    ?GetValueProp@FMapProperty@Unreal@RC@@QEAAAEAPEAVFProperty@23@XZ
    ?GetValueProp@FMapProperty@Unreal@RC@@QEBAAEAPEBVFProperty@23@XZ
    ?GetValueProperty@FOptionalProperty@Unreal@RC@@QEBAAEAPEAVFProperty@23@XZ
    ?GetValueProperty@FOptionalPropertyLayout@Unreal@RC@@QEBAAEAPEAVFProperty@23@XZ
    ?GetValuePtrByPropertyName@UObject@Unreal@RC@@QEAAPEAXPEB_W@Z
    ?GetValuePtrByPropertyName@UObject@Unreal@RC@@QEAAPEAXVFName@23@@Z
    ?GetValuePtrByPropertyNameInChain@UObject@Unreal@RC@@QEAAPEAXPEB_W@Z
    ?GetValuePtrByPropertyNameInChain@UObject@Unreal@RC@@QEAAPEAXVFName@23@@Z
    ?GetValueTypeHash@FProperty@Unreal@RC@@QEBAIPEBX@Z
    ?GetValueTypeHashInternal@FProperty@Unreal@RC@@QEBAIPEBX@Z
    ?GetValues@FNameData@UEnum@Unreal@RC@@QEBAPEB_JXZ
    ?GetViewLocationsRenderedLastFrame@UWorld@Unreal@RC@@QEAAAEAV?$TArray@UFVector@Unreal@RC@@V?$TSizedDefaultAllocator@$0CA@@23@@23@XZ
    ?GetViewLocationsRenderedLastFrame@UWorld@Unreal@RC@@QEBAAEBV?$TArray@UFVector@Unreal@RC@@V?$TSizedDefaultAllocator@$0CA@@23@@23@XZ
    ?GetViewportClient@ULocalPlayer@Unreal@RC@@QEAAAEAV?$TObjectPtr@VUGameViewportClient@Unreal@RC@@@23@XZ
    ?GetViewportClient@ULocalPlayer@Unreal@RC@@QEBAAEBV?$TObjectPtr@VUGameViewportClient@Unreal@RC@@@23@XZ
    ?GetW@FQuat@Unreal@RC@@QEAANXZ
    ?GetW@FQuat@Unreal@RC@@QEBANXZ
    ?GetWorld@AActor@Unreal@RC@@QEAAPEAVUWorld@23@XZ
    ?GetWorld@UObject@Unreal@RC@@QEBAPEAVUWorld@23@XZ
    ?GetX@FQuat@Unreal@RC@@QEAANXZ
    ?GetX@FQuat@Unreal@RC@@QEBANXZ
    ?GetY@FQuat@Unreal@RC@@QEAANXZ
    ?GetY@FQuat@Unreal@RC@@QEBANXZ
    ?GetYaw@FRotator@Unreal@RC@@QEAANXZ
    ?GetYaw@FRotator@Unreal@RC@@QEBANXZ
    ?GetYaw_Internal@FRotator@Unreal@RC@@CANAEBU123@@Z
    ?GetZ@FQuat@Unreal@RC@@QEAANXZ
    ?GetZ@FQuat@Unreal@RC@@QEBANXZ
    ?GetbActorsInitialized@UWorld@Unreal@RC@@QEAA?AUBitfieldProxy@23@XZ
    ?GetbActorsInitialized@UWorld@Unreal@RC@@QEBA?AUConstBitfieldProxy@23@XZ
    ?GetbAggressiveLOD@UWorld@Unreal@RC@@QEAA?AUBitfieldProxy@23@XZ
    ?GetbAggressiveLOD@UWorld@Unreal@RC@@QEBA?AUConstBitfieldProxy@23@XZ
    ?GetbAllowAudioPlayback@UWorld@Unreal@RC@@QEAA?AUBitfieldProxy@23@XZ
    ?GetbAllowAudioPlayback@UWorld@Unreal@RC@@QEBA?AUConstBitfieldProxy@23@XZ
    ?GetbAllowDeferredPhysicsStateCreation@UWorld@Unreal@RC@@QEAAAEA_NXZ
    ?GetbAllowDeferredPhysicsStateCreation@UWorld@Unreal@RC@@QEBAAEB_NXZ
    ?GetbAreConstraintsDirty@UWorld@Unreal@RC@@QEAA?AUBitfieldProxy@23@XZ
    ?GetbAreConstraintsDirty@UWorld@Unreal@RC@@QEBA?AUConstBitfieldProxy@23@XZ
    ?GetbAutoEmitLineTerminator@FOutputDevice@Unreal@RC@@QEAAAEA_NXZ
    ?GetbAutoEmitLineTerminator@FOutputDevice@Unreal@RC@@QEBAAEB_NXZ
    ?GetbBegunPlay@UWorld@Unreal@RC@@QEAA?AUBitfieldProxy@23@XZ
    ?GetbBegunPlay@UWorld@Unreal@RC@@QEBA?AUConstBitfieldProxy@23@XZ
    ?GetbCleanedUpWorld@UWorld@Unreal@RC@@QEAA?AUBitfieldProxy@23@XZ
    ?GetbCleanedUpWorld@UWorld@Unreal@RC@@QEBA?AUConstBitfieldProxy@23@XZ
    ?GetbCooked418@UClass@Unreal@RC@@AEAAAEAIXZ
    ?GetbCooked418@UClass@Unreal@RC@@AEBAAEBIXZ
    ?GetbCookedBase@UClass@Unreal@RC@@AEAAAEA_NXZ
    ?GetbCookedBase@UClass@Unreal@RC@@AEBAAEB_NXZ
    ?GetbCppStructOpsFromBaseClass@UScriptStruct@Unreal@RC@@QEAAAEA_NXZ
    ?GetbCppStructOpsFromBaseClass@UScriptStruct@Unreal@RC@@QEBAAEB_NXZ
    ?GetbCreateRenderStateForHiddenComponents@UWorld@Unreal@RC@@QEAAAEA_NXZ
    ?GetbCreateRenderStateForHiddenComponents@UWorld@Unreal@RC@@QEBAAEB_NXZ
    ?GetbDebugDrawAllTraceTags@UWorld@Unreal@RC@@QEAAAEA_NXZ
    ?GetbDebugDrawAllTraceTags@UWorld@Unreal@RC@@QEBAAEB_NXZ
    ?GetbDebugFrameStepExecution@UWorld@Unreal@RC@@QEAA?AUBitfieldProxy@23@XZ
    ?GetbDebugFrameStepExecution@UWorld@Unreal@RC@@QEBA?AUConstBitfieldProxy@23@XZ
    ?GetbDebugPauseExecution@UWorld@Unreal@RC@@QEAA?AUBitfieldProxy@23@XZ
    ?GetbDebugPauseExecution@UWorld@Unreal@RC@@QEBA?AUConstBitfieldProxy@23@XZ
    ?GetbDelayedStart@AGameMode@Unreal@RC@@QEAA?AUBitfieldProxy@23@XZ
    ?GetbDelayedStart@AGameMode@Unreal@RC@@QEBA?AUConstBitfieldProxy@23@XZ
    ?GetbDoDelayedUpdateCullDistanceVolumes@UWorld@Unreal@RC@@QEAA?AUBitfieldProxy@23@XZ
    ?GetbDoDelayedUpdateCullDistanceVolumes@UWorld@Unreal@RC@@QEBA?AUConstBitfieldProxy@23@XZ
    ?GetbDropDetail@UWorld@Unreal@RC@@QEAA?AUBitfieldProxy@23@XZ
    ?GetbDropDetail@UWorld@Unreal@RC@@QEBA?AUConstBitfieldProxy@23@XZ
    ?GetbEmulateSplitscreen@ULocalPlayer@Unreal@RC@@QEAAAEA_NXZ
    ?GetbEmulateSplitscreen@ULocalPlayer@Unreal@RC@@QEBAAEB_NXZ
    ?GetbHack_Force_UsesGameHiddenFlags_True@UWorld@Unreal@RC@@QEAAAEA_NXZ
    ?GetbHack_Force_UsesGameHiddenFlags_True@UWorld@Unreal@RC@@QEBAAEB_NXZ
    ?GetbHandleDedicatedServerReplays@AGameMode@Unreal@RC@@QEAAAEA_NXZ
    ?GetbHandleDedicatedServerReplays@AGameMode@Unreal@RC@@QEBAAEB_NXZ
    ?GetbHasEverBeenInitialized@UWorld@Unreal@RC@@QEAA?AUBitfieldProxy@23@XZ
    ?GetbHasEverBeenInitialized@UWorld@Unreal@RC@@QEBA?AUConstBitfieldProxy@23@XZ
    ?GetbIgnoreExtraFields@UDataTable@Unreal@RC@@QEAA?AUBitfieldProxy@23@XZ
    ?GetbIgnoreExtraFields@UDataTable@Unreal@RC@@QEBA?AUConstBitfieldProxy@23@XZ
    ?GetbIgnoreMissingFields@UDataTable@Unreal@RC@@QEAA?AUBitfieldProxy@23@XZ
    ?GetbIgnoreMissingFields@UDataTable@Unreal@RC@@QEBA?AUConstBitfieldProxy@23@XZ
    ?GetbInTick@UWorld@Unreal@RC@@QEAA?AUBitfieldProxy@23@XZ
    ?GetbInTick@UWorld@Unreal@RC@@QEBA?AUConstBitfieldProxy@23@XZ
    ?GetbInitializedAndNeedsCleanup@UWorld@Unreal@RC@@QEAA?AUBitfieldProxy@23@XZ
    ?GetbInitializedAndNeedsCleanup@UWorld@Unreal@RC@@QEBA?AUConstBitfieldProxy@23@XZ
    ?GetbIsBeingCleanedUp@UWorld@Unreal@RC@@QEAAAEA_NXZ
    ?GetbIsBeingCleanedUp@UWorld@Unreal@RC@@QEBAAEB_NXZ
    ?GetbIsBuilt@UWorld@Unreal@RC@@QEAA?AUBitfieldProxy@23@XZ
    ?GetbIsBuilt@UWorld@Unreal@RC@@QEBA?AUConstBitfieldProxy@23@XZ
    ?GetbIsCameraMoveableWhenPaused@UWorld@Unreal@RC@@QEAA?AUBitfieldProxy@23@XZ
    ?GetbIsCameraMoveableWhenPaused@UWorld@Unreal@RC@@QEBA?AUConstBitfieldProxy@23@XZ
    ?GetbIsDefaultLevel@UWorld@Unreal@RC@@QEAA?AUBitfieldProxy@23@XZ
    ?GetbIsDefaultLevel@UWorld@Unreal@RC@@QEBA?AUConstBitfieldProxy@23@XZ
    ?GetbIsLevelStreamingFrozen@UWorld@Unreal@RC@@QEAA?AUBitfieldProxy@23@XZ
    ?GetbIsLevelStreamingFrozen@UWorld@Unreal@RC@@QEBA?AUConstBitfieldProxy@23@XZ
    ?GetbIsPrimaryPIEInstance@FWorldContext@Unreal@RC@@QEAAAEA_NXZ
    ?GetbIsPrimaryPIEInstance@FWorldContext@Unreal@RC@@QEBAAEB_NXZ
    ?GetbIsRunningConstructionScript@UWorld@Unreal@RC@@QEAA?AUBitfieldProxy@23@XZ
    ?GetbIsRunningConstructionScript@UWorld@Unreal@RC@@QEBA?AUConstBitfieldProxy@23@XZ
    ?GetbIsTearingDown@UWorld@Unreal@RC@@QEAA?AUBitfieldProxy@23@XZ
    ?GetbIsTearingDown@UWorld@Unreal@RC@@QEBA?AUConstBitfieldProxy@23@XZ
    ?GetbIsWorldInitialized@UWorld@Unreal@RC@@QEAA?AUBitfieldProxy@23@XZ
    ?GetbIsWorldInitialized@UWorld@Unreal@RC@@QEBA?AUConstBitfieldProxy@23@XZ
    ?GetbKismetScriptError@UWorld@Unreal@RC@@QEAA?AUBitfieldProxy@23@XZ
    ?GetbKismetScriptError@UWorld@Unreal@RC@@QEBA?AUConstBitfieldProxy@23@XZ
    ?GetbLayoutChanging@UClass@Unreal@RC@@QEAAAEA_NXZ
    ?GetbLayoutChanging@UClass@Unreal@RC@@QEBAAEB_NXZ
    ?GetbMarkedObjectsPendingKill@UWorld@Unreal@RC@@QEAA?AUBitfieldProxy@23@XZ
    ?GetbMarkedObjectsPendingKill@UWorld@Unreal@RC@@QEBA?AUConstBitfieldProxy@23@XZ
    ?GetbMatchStarted@UWorld@Unreal@RC@@QEAA?AUBitfieldProxy@23@XZ
    ?GetbMatchStarted@UWorld@Unreal@RC@@QEBA?AUConstBitfieldProxy@23@XZ
    ?GetbMaterialParameterCollectionInstanceNeedsDeferredUpdate@UWorld@Unreal@RC@@QEAA?AUBitfieldProxy@23@XZ
    ?GetbMaterialParameterCollectionInstanceNeedsDeferredUpdate@UWorld@Unreal@RC@@QEBA?AUConstBitfieldProxy@23@XZ
    ?GetbNeedsDynamicSubobjectInstancing@UClass@Unreal@RC@@QEAAAEA_NXZ
    ?GetbNeedsDynamicSubobjectInstancing@UClass@Unreal@RC@@QEBAAEB_NXZ
    ?GetbOriginOffsetThisFrame@UWorld@Unreal@RC@@QEAAAEA_NXZ
    ?GetbOriginOffsetThisFrame@UWorld@Unreal@RC@@QEBAAEB_NXZ
    ?GetbPauseable@AGameMode@Unreal@RC@@QEAA?AUBitfieldProxy@23@XZ
    ?GetbPauseable@AGameMode@Unreal@RC@@QEBA?AUConstBitfieldProxy@23@XZ
    ?GetbPauseable@AGameModeBase@Unreal@RC@@QEAA?AUBitfieldProxy@23@XZ
    ?GetbPauseable@AGameModeBase@Unreal@RC@@QEBA?AUConstBitfieldProxy@23@XZ
    ?GetbPlayersOnly@UWorld@Unreal@RC@@QEAA?AUBitfieldProxy@23@XZ
    ?GetbPlayersOnly@UWorld@Unreal@RC@@QEBA?AUConstBitfieldProxy@23@XZ
    ?GetbPlayersOnlyPending@UWorld@Unreal@RC@@QEAA?AUBitfieldProxy@23@XZ
    ?GetbPlayersOnlyPending@UWorld@Unreal@RC@@QEBA?AUConstBitfieldProxy@23@XZ
    ?GetbPostTickComponentUpdate@UWorld@Unreal@RC@@QEAA?AUBitfieldProxy@23@XZ
    ?GetbPostTickComponentUpdate@UWorld@Unreal@RC@@QEBA?AUConstBitfieldProxy@23@XZ
    ?GetbPrepareCppStructOpsCompleted@UScriptStruct@Unreal@RC@@QEAAAEA_NXZ
    ?GetbPrepareCppStructOpsCompleted@UScriptStruct@Unreal@RC@@QEBAAEB_NXZ
    ?GetbPreserveExistingValues@UDataTable@Unreal@RC@@QEAA?AUBitfieldProxy@23@XZ
    ?GetbPreserveExistingValues@UDataTable@Unreal@RC@@QEBA?AUConstBitfieldProxy@23@XZ
    ?GetbRequestedBlockOnAsyncLoading@UWorld@Unreal@RC@@QEAA?AUBitfieldProxy@23@XZ
    ?GetbRequestedBlockOnAsyncLoading@UWorld@Unreal@RC@@QEBA?AUConstBitfieldProxy@23@XZ
    ?GetbRequiresHitProxies@UWorld@Unreal@RC@@QEAA?AUBitfieldProxy@23@XZ
    ?GetbRequiresHitProxies@UWorld@Unreal@RC@@QEBA?AUConstBitfieldProxy@23@XZ
    ?GetbSentSplitJoin@ULocalPlayer@Unreal@RC@@QEAA?AUBitfieldProxy@23@XZ
    ?GetbSentSplitJoin@ULocalPlayer@Unreal@RC@@QEBA?AUConstBitfieldProxy@23@XZ
    ?GetbShouldCommitPendingMapChange@FWorldContext@Unreal@RC@@QEAA?AUBitfieldProxy@23@XZ
    ?GetbShouldCommitPendingMapChange@FWorldContext@Unreal@RC@@QEBA?AUConstBitfieldProxy@23@XZ
    ?GetbShouldDelayGarbageCollect@UWorld@Unreal@RC@@QEAAAEA_NXZ
    ?GetbShouldDelayGarbageCollect@UWorld@Unreal@RC@@QEBAAEB_NXZ
    ?GetbShouldForceUnloadStreamingLevels@UWorld@Unreal@RC@@QEAA?AUBitfieldProxy@23@XZ
    ?GetbShouldForceUnloadStreamingLevels@UWorld@Unreal@RC@@QEBA?AUConstBitfieldProxy@23@XZ
    ?GetbShouldForceVisibleStreamingLevels@UWorld@Unreal@RC@@QEAA?AUBitfieldProxy@23@XZ
    ?GetbShouldForceVisibleStreamingLevels@UWorld@Unreal@RC@@QEBA?AUConstBitfieldProxy@23@XZ
    ?GetbShouldRecycleObjectIndices@FUObjectArray@Unreal@RC@@QEAAAEA_NXZ
    ?GetbShouldRecycleObjectIndices@FUObjectArray@Unreal@RC@@QEBAAEB_NXZ
    ?GetbShouldSimulatePhysics@UWorld@Unreal@RC@@QEAA?AUBitfieldProxy@23@XZ
    ?GetbShouldSimulatePhysics@UWorld@Unreal@RC@@QEBA?AUConstBitfieldProxy@23@XZ
    ?GetbShouldTick@UWorld@Unreal@RC@@QEAA?AUBitfieldProxy@23@XZ
    ?GetbShouldTick@UWorld@Unreal@RC@@QEBA?AUConstBitfieldProxy@23@XZ
    ?GetbStartPlayersAsSpectators@AGameMode@Unreal@RC@@QEAA?AUBitfieldProxy@23@XZ
    ?GetbStartPlayersAsSpectators@AGameMode@Unreal@RC@@QEBA?AUConstBitfieldProxy@23@XZ
    ?GetbStartPlayersAsSpectators@AGameModeBase@Unreal@RC@@QEAA?AUBitfieldProxy@23@XZ
    ?GetbStartPlayersAsSpectators@AGameModeBase@Unreal@RC@@QEBA?AUConstBitfieldProxy@23@XZ
    ?GetbStartup@UWorld@Unreal@RC@@QEAA?AUBitfieldProxy@23@XZ
    ?GetbStartup@UWorld@Unreal@RC@@QEBA?AUConstBitfieldProxy@23@XZ
    ?GetbStreamingDataDirty@UWorld@Unreal@RC@@QEAA?AUBitfieldProxy@23@XZ
    ?GetbStreamingDataDirty@UWorld@Unreal@RC@@QEBA?AUConstBitfieldProxy@23@XZ
    ?GetbStripFromClientBuilds@UDataTable@Unreal@RC@@QEAA?AUBitfieldProxy@23@XZ
    ?GetbStripFromClientBuilds@UDataTable@Unreal@RC@@QEBA?AUConstBitfieldProxy@23@XZ
    ?GetbSupportsMakingInvisibleTransactionRequests@UWorld@Unreal@RC@@QEAAAEAU?$TOptional@_N@23@XZ
    ?GetbSupportsMakingInvisibleTransactionRequests@UWorld@Unreal@RC@@QEBAAEBU?$TOptional@_N@23@XZ
    ?GetbSupportsMakingVisibleTransactionRequests@UWorld@Unreal@RC@@QEAAAEAU?$TOptional@_N@23@XZ
    ?GetbSupportsMakingVisibleTransactionRequests@UWorld@Unreal@RC@@QEBAAEBU?$TOptional@_N@23@XZ
    ?GetbSuppressEventTag@FOutputDevice@Unreal@RC@@QEAAAEA_NXZ
    ?GetbSuppressEventTag@FOutputDevice@Unreal@RC@@QEBAAEB_NXZ
    ?GetbTickNewlySpawned@UWorld@Unreal@RC@@QEAA?AUBitfieldProxy@23@XZ
    ?GetbTickNewlySpawned@UWorld@Unreal@RC@@QEBA?AUConstBitfieldProxy@23@XZ
    ?GetbTriggerPostLoadMap@UWorld@Unreal@RC@@QEAA?AUBitfieldProxy@23@XZ
    ?GetbTriggerPostLoadMap@UWorld@Unreal@RC@@QEBA?AUConstBitfieldProxy@23@XZ
    ?GetbUseSeamlessTravel@AGameMode@Unreal@RC@@QEAA?AUBitfieldProxy@23@XZ
    ?GetbUseSeamlessTravel@AGameMode@Unreal@RC@@QEBA?AUConstBitfieldProxy@23@XZ
    ?GetbUseSeamlessTravel@AGameModeBase@Unreal@RC@@QEAA?AUBitfieldProxy@23@XZ
    ?GetbUseSeamlessTravel@AGameModeBase@Unreal@RC@@QEBA?AUConstBitfieldProxy@23@XZ
    ?GetbWaitingOnOnlineSubsystem@FWorldContext@Unreal@RC@@QEAAAEA_NXZ
    ?GetbWaitingOnOnlineSubsystem@FWorldContext@Unreal@RC@@QEBAAEB_NXZ
    ?GetbWorldWasLoadedThisTick@UWorld@Unreal@RC@@QEAA?AUBitfieldProxy@23@XZ
    ?GetbWorldWasLoadedThisTick@UWorld@Unreal@RC@@QEBA?AUConstBitfieldProxy@23@XZ
    ?GlobalConfig@StaticStorage@UnrealInitializer@Unreal@RC@@2UConfig@234@A
    ?GlobalObjectCache@FClassCreateListener@Unreal@RC@@2V?$unordered_map@V?$basic_string@_WU?$char_traits@_W@std@@V?$allocator@_W@2@@std@@PEAVUObject@Unreal@RC@@U?$hash@V?$basic_string@_WU?$char_traits@_W@std@@V?$allocator@_W@2@@std@@@2@U?$equal_to@V?$basic_string@_WU?$char_traits@_W@std@@V?$allocator@_W@2@@std@@@2@V?$allocator@U?$pair@$$CBV?$basic_string@_WU?$char_traits@_W@std@@V?$allocator@_W@2@@std@@PEAVUObject@Unreal@RC@@@std@@@2@@std@@A
    ?GlobalObjectValueCache@FClassCreateListener@Unreal@RC@@2V?$unordered_map@PEAVUObject@Unreal@RC@@V?$basic_string@_WU?$char_traits@_W@std@@V?$allocator@_W@2@@std@@U?$hash@PEAVUObject@Unreal@RC@@@5@U?$equal_to@PEAVUObject@Unreal@RC@@@5@V?$allocator@U?$pair@QEAVUObject@Unreal@RC@@V?$basic_string@_WU?$char_traits@_W@std@@V?$allocator@_W@2@@std@@@std@@@5@@std@@A
    ?HasAllCastFlags@FFieldClassVariant@Unreal@RC@@QEBA_N_K@Z
    ?HasAllCastFlags@UClass@Unreal@RC@@QEBA_NW4EClassCastFlags@23@@Z
    ?HasAllClassFlags@UClass@Unreal@RC@@QEAA_NW4EClassFlags@23@@Z
    ?HasAllFlags@UObject@Unreal@RC@@QEAA_NW4EObjectFlags@23@@Z
    ?HasAllFunctionFlags@UFunction@Unreal@RC@@QEAA_NW4EFunctionFlags@23@@Z
    ?HasAllPropertyFlags@FProperty@Unreal@RC@@QEAA_NW4EPropertyFlags@23@@Z
    ?HasAllPropertyFlags@FProperty@Unreal@RC@@QEBA_NW4EPropertyFlags@23@@Z
    ?HasAllStructFlags@UScriptStruct@Unreal@RC@@QEBA@W4EStructFlags@23@@Z
    ?HasAllocation@FMemoryImageAllocatorBase@Unreal@RC@@QEBA_NXZ
    ?HasAnyCastFlag@UClass@Unreal@RC@@QEBA_NW4EClassCastFlags@23@@Z
    ?HasAnyCastFlags@FFieldClassVariant@Unreal@RC@@QEBA_N_K@Z
    ?HasAnyClassFlags@UClass@Unreal@RC@@QEAA_NW4EClassFlags@23@@Z
    ?HasAnyFlags@FUObjectItem@Unreal@RC@@QEBA_NW4EInternalObjectFlags@23@@Z
    ?HasAnyFlags@UObject@Unreal@RC@@QEAA_NW4EObjectFlags@23@@Z
    ?HasAnyFunctionFlags@UFunction@Unreal@RC@@QEAA_NW4EFunctionFlags@23@@Z
    ?HasAnyInternalFlags@UObject@Unreal@RC@@QEAA_NW4EInternalObjectFlags@23@@Z
    ?HasAnyPropertyFlags@FProperty@Unreal@RC@@QEBA_N_K@Z
    ?HasAnyStructFlags@UScriptStruct@Unreal@RC@@QEBA@W4EStructFlags@23@@Z
    ?HasChildren@UStruct@Unreal@RC@@QEAA_NXZ
    ?HasIntrusiveUnsetOptionalState@FProperty@Unreal@RC@@QEAA_NXZ
    ?HasNext@FField@Unreal@RC@@QEAA_NXZ
    ?HashObject@FFieldClassVariant@Unreal@RC@@QEBA_KXZ
    ?HashObject@FFieldVariant@Unreal@RC@@QEAA_KXZ
    ?HashObject@UObject@Unreal@RC@@QEAA_KXZ
    ?HashObject@UObject@Unreal@RC@@QEBA_KXZ
    ?HookAActorTick@Unreal@RC@@YAXXZ
    ?HookBeginPlay@Unreal@RC@@YAXXZ
    ?HookCallFunctionByNameWithArguments@Unreal@RC@@YAXXZ
    ?HookEndPlay@Unreal@RC@@YAXXZ
    ?HookEngineTick@Unreal@RC@@YAXXZ
    ?HookGameViewportClientTick@Unreal@RC@@YAXXZ
    ?HookIndexCounter@UnrealScriptFunctionData@Unreal@RC@@0U?$atomic@H@std@@A
    ?HookInitGameState@Unreal@RC@@YAXXZ
    ?HookLoadMap@Unreal@RC@@YAXXZ
    ?HookProcessConsoleExec@Unreal@RC@@YAXXZ
    ?HookProcessEvent@Unreal@RC@@YAXXZ
    ?HookProcessInternal@Unreal@RC@@YAXXZ
    ?HookProcessLocalScriptFunction@Unreal@RC@@YAXXZ
    ?HookStaticConstructObject@Unreal@RC@@YAXXZ
    ?HookULocalPlayerExec@Unreal@RC@@YAXXZ
    ?HookUStructLink@Unreal@RC@@YAXXZ
    ?INVALID_BIT@FCallbackMetadata@Internal@Hook@Unreal@RC@@2_KB
    ?Identical@FProperty@Unreal@RC@@QEAA_NPEBX0I@Z
    ?IdenticalImpl@?$TProperty_WithEqualityAndSerializer@CVFNumericProperty@Unreal@RC@@@Unreal@RC@@IEAA_NPEBX0I@Z
    ?IdenticalImpl@?$TProperty_WithEqualityAndSerializer@EVFNumericProperty@Unreal@RC@@@Unreal@RC@@IEAA_NPEBX0I@Z
    ?IdenticalImpl@?$TProperty_WithEqualityAndSerializer@FVFNumericProperty@Unreal@RC@@@Unreal@RC@@IEAA_NPEBX0I@Z
    ?IdenticalImpl@?$TProperty_WithEqualityAndSerializer@GVFNumericProperty@Unreal@RC@@@Unreal@RC@@IEAA_NPEBX0I@Z
    ?IdenticalImpl@?$TProperty_WithEqualityAndSerializer@HVFNumericProperty@Unreal@RC@@@Unreal@RC@@IEAA_NPEBX0I@Z
    ?IdenticalImpl@?$TProperty_WithEqualityAndSerializer@IVFNumericProperty@Unreal@RC@@@Unreal@RC@@IEAA_NPEBX0I@Z
    ?IdenticalImpl@?$TProperty_WithEqualityAndSerializer@MVFNumericProperty@Unreal@RC@@@Unreal@RC@@IEAA_NPEBX0I@Z
    ?IdenticalImpl@?$TProperty_WithEqualityAndSerializer@NVFNumericProperty@Unreal@RC@@@Unreal@RC@@IEAA_NPEBX0I@Z
    ?IdenticalImpl@?$TProperty_WithEqualityAndSerializer@VFAnsiString@Unreal@RC@@VFProperty@23@@Unreal@RC@@IEAA_NPEBX0I@Z
    ?IdenticalImpl@?$TProperty_WithEqualityAndSerializer@VFName@Unreal@RC@@VFProperty@23@@Unreal@RC@@IEAA_NPEBX0I@Z
    ?IdenticalImpl@?$TProperty_WithEqualityAndSerializer@VFString@Unreal@RC@@VFProperty@23@@Unreal@RC@@IEAA_NPEBX0I@Z
    ?IdenticalImpl@?$TProperty_WithEqualityAndSerializer@VFUtf8String@Unreal@RC@@VFProperty@23@@Unreal@RC@@IEAA_NPEBX0I@Z
    ?IdenticalImpl@?$TProperty_WithEqualityAndSerializer@_JVFNumericProperty@Unreal@RC@@@Unreal@RC@@IEAA_NPEBX0I@Z
    ?IdenticalImpl@?$TProperty_WithEqualityAndSerializer@_KVFNumericProperty@Unreal@RC@@@Unreal@RC@@IEAA_NPEBX0I@Z
    ?Identical_InContainer@FProperty@Unreal@RC@@QEAA_NPEBX0HI@Z
    ?ImportCustomProperties@UObject@Unreal@RC@@QEAAXPEB_WPEAVFFeedbackContext@23@@Z
    ?ImportText@FProperty@Unreal@RC@@QEBAPEB_WPEB_WPEAXHPEAVUObject@23@PEAVFOutputDevice@23@@Z
    ?ImportText_Direct@FProperty@Unreal@RC@@QEBAPEB_WPEB_WPEAXPEAVUObject@23@HPEAVFOutputDevice@23@@Z
    ?ImportText_InContainer@FProperty@Unreal@RC@@QEBAPEB_WPEB_WPEAXPEAVUObject@23@HPEAVFOutputDevice@23@@Z
    ?ImportText_Internal@FProperty@Unreal@RC@@QEBAPEB_WPEB_WPEAXHPEAVUObject@23@PEAVFOutputDevice@23@@Z
    ?ImportText_Internal@FProperty@Unreal@RC@@QEBAPEB_WPEB_WPEAXW4EPropertyPointerType@23@PEAVUObject@23@HPEAVFOutputDevice@23@@Z
    ?IndexToObject@FUObjectArray@Unreal@RC@@SAPEAUFUObjectItem@23@H@Z
    ?InitGameStateInternal@AGameModeBase@Unreal@RC@@2V?$Function@$$A6AXPEAVAGameModeBase@Unreal@RC@@@Z@3@A
    ?Initialize@UnrealInitializer@Unreal@RC@@YAXAEBUConfig@123@@Z
    ?Initialize@Version@Unreal@RC@@SA?AUVersionStatus@23@PEAX@Z
    ?InitializeIntrusiveUnsetOptionalValue@FProperty@Unreal@RC@@QEBAXPEAX@Z
    ?InitializePropertyValue@?$TPropertyTypeFundamentals@C@Unreal@RC@@SAPEACPEAX@Z
    ?InitializePropertyValue@?$TPropertyTypeFundamentals@E@Unreal@RC@@SAPEAEPEAX@Z
    ?InitializePropertyValue@?$TPropertyTypeFundamentals@F@Unreal@RC@@SAPEAFPEAX@Z
    ?InitializePropertyValue@?$TPropertyTypeFundamentals@G@Unreal@RC@@SAPEAGPEAX@Z
    ?InitializePropertyValue@?$TPropertyTypeFundamentals@H@Unreal@RC@@SAPEAHPEAX@Z
    ?InitializePropertyValue@?$TPropertyTypeFundamentals@I@Unreal@RC@@SAPEAIPEAX@Z
    ?InitializePropertyValue@?$TPropertyTypeFundamentals@M@Unreal@RC@@SAPEAMPEAX@Z
    ?InitializePropertyValue@?$TPropertyTypeFundamentals@N@Unreal@RC@@SAPEANPEAX@Z
    ?InitializePropertyValue@?$TPropertyTypeFundamentals@PEAVUObject@Unreal@RC@@@Unreal@RC@@SAPEAPEAVUObject@23@PEAX@Z
    ?InitializePropertyValue@?$TPropertyTypeFundamentals@UFFieldPath@Unreal@RC@@@Unreal@RC@@SAPEAUFFieldPath@23@PEAX@Z
    ?InitializePropertyValue@?$TPropertyTypeFundamentals@UFLazyObjectPtr@Unreal@RC@@@Unreal@RC@@SAPEAUFLazyObjectPtr@23@PEAX@Z
    ?InitializePropertyValue@?$TPropertyTypeFundamentals@UFSoftObjectPtr@Unreal@RC@@@Unreal@RC@@SAPEAUFSoftObjectPtr@23@PEAX@Z
    ?InitializePropertyValue@?$TPropertyTypeFundamentals@UFSparseDelegate@Unreal@RC@@@Unreal@RC@@SAPEAUFSparseDelegate@23@PEAX@Z
    ?InitializePropertyValue@?$TPropertyTypeFundamentals@UFWeakObjectPtr@Unreal@RC@@@Unreal@RC@@SAPEAUFWeakObjectPtr@23@PEAX@Z
    ?InitializePropertyValue@?$TPropertyTypeFundamentals@V?$TMulticastScriptDelegate@UFWeakObjectPtr@Unreal@RC@@@Unreal@RC@@@Unreal@RC@@SAPEAV?$TMulticastScriptDelegate@UFWeakObjectPtr@Unreal@RC@@@23@PEAX@Z
    ?InitializePropertyValue@?$TPropertyTypeFundamentals@V?$TScriptDelegate@UFWeakObjectPtr@Unreal@RC@@@Unreal@RC@@@Unreal@RC@@SAPEAV?$TScriptDelegate@UFWeakObjectPtr@Unreal@RC@@@23@PEAX@Z
    ?InitializePropertyValue@?$TPropertyTypeFundamentals@VFAnsiString@Unreal@RC@@@Unreal@RC@@SAPEAVFAnsiString@23@PEAX@Z
    ?InitializePropertyValue@?$TPropertyTypeFundamentals@VFName@Unreal@RC@@@Unreal@RC@@SAPEAVFName@23@PEAX@Z
    ?InitializePropertyValue@?$TPropertyTypeFundamentals@VFScriptInterface@Unreal@RC@@@Unreal@RC@@SAPEAVFScriptInterface@23@PEAX@Z
    ?InitializePropertyValue@?$TPropertyTypeFundamentals@VFScriptMap@Unreal@RC@@@Unreal@RC@@SAPEAVFScriptMap@23@PEAX@Z
    ?InitializePropertyValue@?$TPropertyTypeFundamentals@VFScriptSet@Unreal@RC@@@Unreal@RC@@SAPEAVFScriptSet@23@PEAX@Z
    ?InitializePropertyValue@?$TPropertyTypeFundamentals@VFString@Unreal@RC@@@Unreal@RC@@SAPEAVFString@23@PEAX@Z
    ?InitializePropertyValue@?$TPropertyTypeFundamentals@VFText@Unreal@RC@@@Unreal@RC@@SAPEAVFText@23@PEAX@Z
    ?InitializePropertyValue@?$TPropertyTypeFundamentals@VFUtf8String@Unreal@RC@@@Unreal@RC@@SAPEAVFUtf8String@23@PEAX@Z
    ?InitializePropertyValue@?$TPropertyTypeFundamentals@_J@Unreal@RC@@SAPEA_JPEAX@Z
    ?InitializePropertyValue@?$TPropertyTypeFundamentals@_K@Unreal@RC@@SAPEA_KPEAX@Z
    ?InitializeStatsMetadata@FMalloc@Unreal@RC@@QEAAXXZ
    ?InitializeStruct@UStruct@Unreal@RC@@QEBAXPEAXH@Z
    ?InitializeValue@FProperty@Unreal@RC@@QEBAXPEAX@Z
    ?InitializeValueImpl@?$TProperty@CVFNumericProperty@Unreal@RC@@@Unreal@RC@@IEAAXPEAX@Z
    ?InitializeValueImpl@?$TProperty@EVFNumericProperty@Unreal@RC@@@Unreal@RC@@IEAAXPEAX@Z
    ?InitializeValueImpl@?$TProperty@FVFNumericProperty@Unreal@RC@@@Unreal@RC@@IEAAXPEAX@Z
    ?InitializeValueImpl@?$TProperty@GVFNumericProperty@Unreal@RC@@@Unreal@RC@@IEAAXPEAX@Z
    ?InitializeValueImpl@?$TProperty@HVFNumericProperty@Unreal@RC@@@Unreal@RC@@IEAAXPEAX@Z
    ?InitializeValueImpl@?$TProperty@IVFNumericProperty@Unreal@RC@@@Unreal@RC@@IEAAXPEAX@Z
    ?InitializeValueImpl@?$TProperty@MVFNumericProperty@Unreal@RC@@@Unreal@RC@@IEAAXPEAX@Z
    ?InitializeValueImpl@?$TProperty@NVFNumericProperty@Unreal@RC@@@Unreal@RC@@IEAAXPEAX@Z
    ?InitializeValueImpl@?$TProperty@PEAVUObject@Unreal@RC@@VFObjectPropertyBase@23@@Unreal@RC@@IEAAXPEAX@Z
    ?InitializeValueImpl@?$TProperty@UFFieldPath@Unreal@RC@@VFProperty@23@@Unreal@RC@@IEAAXPEAX@Z
    ?InitializeValueImpl@?$TProperty@UFLazyObjectPtr@Unreal@RC@@VFObjectPropertyBase@23@@Unreal@RC@@IEAAXPEAX@Z
    ?InitializeValueImpl@?$TProperty@UFSoftObjectPtr@Unreal@RC@@VFObjectPropertyBase@23@@Unreal@RC@@IEAAXPEAX@Z
    ?InitializeValueImpl@?$TProperty@UFSparseDelegate@Unreal@RC@@VFMulticastDelegateProperty@23@@Unreal@RC@@IEAAXPEAX@Z
    ?InitializeValueImpl@?$TProperty@UFWeakObjectPtr@Unreal@RC@@VFObjectPropertyBase@23@@Unreal@RC@@IEAAXPEAX@Z
    ?InitializeValueImpl@?$TProperty@V?$TMulticastScriptDelegate@UFWeakObjectPtr@Unreal@RC@@@Unreal@RC@@VFMulticastDelegateProperty@23@@Unreal@RC@@IEAAXPEAX@Z
    ?InitializeValueImpl@?$TProperty@V?$TScriptDelegate@UFWeakObjectPtr@Unreal@RC@@@Unreal@RC@@VFProperty@23@@Unreal@RC@@IEAAXPEAX@Z
    ?InitializeValueImpl@?$TProperty@VFAnsiString@Unreal@RC@@VFProperty@23@@Unreal@RC@@IEAAXPEAX@Z
    ?InitializeValueImpl@?$TProperty@VFName@Unreal@RC@@VFProperty@23@@Unreal@RC@@IEAAXPEAX@Z
    ?InitializeValueImpl@?$TProperty@VFScriptInterface@Unreal@RC@@VFProperty@23@@Unreal@RC@@IEAAXPEAX@Z
    ?InitializeValueImpl@?$TProperty@VFScriptMap@Unreal@RC@@VFProperty@23@@Unreal@RC@@IEAAXPEAX@Z
    ?InitializeValueImpl@?$TProperty@VFScriptSet@Unreal@RC@@VFProperty@23@@Unreal@RC@@IEAAXPEAX@Z
    ?InitializeValueImpl@?$TProperty@VFString@Unreal@RC@@VFProperty@23@@Unreal@RC@@IEAAXPEAX@Z
    ?InitializeValueImpl@?$TProperty@VFText@Unreal@RC@@VFProperty@23@@Unreal@RC@@IEAAXPEAX@Z
    ?InitializeValueImpl@?$TProperty@VFUtf8String@Unreal@RC@@VFProperty@23@@Unreal@RC@@IEAAXPEAX@Z
    ?InitializeValueImpl@?$TProperty@_JVFNumericProperty@Unreal@RC@@@Unreal@RC@@IEAAXPEAX@Z
    ?InitializeValueImpl@?$TProperty@_KVFNumericProperty@Unreal@RC@@@Unreal@RC@@IEAAXPEAX@Z
    ?InitializeValueInternal@FProperty@Unreal@RC@@IEBAXPEAX@Z
    ?InitializeValue_InContainer@FProperty@Unreal@RC@@QEBAXPEAX@Z
    ?InitializeVersionedContainer@UnrealInitializer@Unreal@RC@@YAXXZ
    ?InsertAt@?$TStringBase@D@Unreal@RC@@QEAAXHD@Z
    ?InsertAt@?$TStringBase@_Q@Unreal@RC@@QEAAXH_Q@Z
    ?InsertAt@?$TStringBase@_W@Unreal@RC@@QEAAXH_W@Z
    ?InsertIntoNames@UEnum@Unreal@RC@@QEAAHAEBU?$TTuple@VFName@Unreal@RC@@_J@23@H_N@Z
    ?InstanceSubobjects@FProperty@Unreal@RC@@QEAAXPEAXPEBXPEAVUObject@23@PEAUFObjectInstancingGraph@23@@Z
    ?InternalGet@FWeakObjectPtr@Unreal@RC@@AEBAPEAVUObject@23@_N@Z
    ?InternalGetObjectItem@FWeakObjectPtr@Unreal@RC@@AEBAPEAUFUObjectItem@23@XZ
    ?Internal_GetObjectItem@FWeakObjectPtr@Unreal@RC@@AEBAPEAUFUObjectItem@23@XZ
    ?Internal_IsValid@FWeakObjectPtr@Unreal@RC@@AEBA_N_N0@Z
    ?Invalidate@FCallbackMetadata@Internal@Hook@Unreal@RC@@QEAA_NXZ
    ?IsA@FField@Unreal@RC@@QEAA_NAEBVFFieldClassVariant@23@@Z
    ?IsA@FFieldVariant@Unreal@RC@@QEBA_NPEBVFFieldClass@23@@Z
    ?IsA@FFieldVariant@Unreal@RC@@QEBA_NPEBVUClass@23@@Z
    ?IsA@UObjectBase@Unreal@RC@@QEBA_NPEAVUClass@23@@Z
    ?IsA@UObjectBase@Unreal@RC@@QEBA_NPEBVUClass@23@@Z
    ?IsAbove@Version@Unreal@RC@@SA_NHH@Z
    ?IsActorTickEnabled@AActor@Unreal@RC@@QEAA_NXZ
    ?IsAsset@UObject@Unreal@RC@@QEBA_NXZ
    ?IsAtLeast@Version@Unreal@RC@@SA_NHH@Z
    ?IsAtMost@Version@Unreal@RC@@SA_NHH@Z
    ?IsBelow@Version@Unreal@RC@@SA_NHH@Z
    ?IsBound@FSparseDelegate@Unreal@RC@@QEBA_NXZ
    ?IsChildOf@FFieldClass@Unreal@RC@@QEBA_NPEBV123@@Z
    ?IsChildOf@FFieldClassVariant@Unreal@RC@@QEBA_NV123@@Z
    ?IsChildOf@UStruct@Unreal@RC@@QEAA_NPEAV123@@Z
    ?IsChildOf@UStruct@Unreal@RC@@QEBA_NPEBV123@@Z
    ?IsChildOfInternal@UStruct@Unreal@RC@@CA_NPEBV123@0@Z
    ?IsDebug@Version@Unreal@RC@@SA_NXZ
    ?IsDestructionThreadSafe@UObject@Unreal@RC@@QEBA_NXZ
    ?IsDynamic@FNameData@UEnum@Unreal@RC@@QEBA_NXZ
    ?IsEditorOnly@UObject@Unreal@RC@@QEBA_NXZ
    ?IsEmpty@?$TStringBase@D@Unreal@RC@@QEBA_NXZ
    ?IsEmpty@?$TStringBase@_Q@Unreal@RC@@QEBA_NXZ
    ?IsEmpty@?$TStringBase@_W@Unreal@RC@@QEBA_NXZ
    ?IsEngineTickAvailable@UE4SSRuntime@RC@@SA_NXZ
    ?IsEnum@FNumericProperty@Unreal@RC@@QEAA_NXZ
    ?IsEqual@FName@Unreal@RC@@QEBA_NAEBV123@W4ENameCase@23@_N@Z
    ?IsEqual@Version@Unreal@RC@@SA_NHH@Z
    ?IsFieldClass@FFieldClassVariant@Unreal@RC@@AEBA_NXZ
    ?IsFloatingPoint@FNumericProperty@Unreal@RC@@QEBA_NXZ
    ?IsFullNameStableForNetworking@UObject@Unreal@RC@@QEBA_NXZ
    ?IsGCKeepSet@FUObjectItem@Unreal@RC@@QEAA_NXZ
    ?IsGameThreadInitialized@Unreal@RC@@YA_NXZ
    ?IsInContainer@FProperty@Unreal@RC@@QEBA_NH@Z
    ?IsInContainer@FProperty@Unreal@RC@@QEBA_NPEBVUStruct@23@@Z
    ?IsInGameThread@Unreal@RC@@YA_NXZ
    ?IsInGameThreadRaw@Unreal@RC@@YA_NXZ
    ?IsInteger@FNumericProperty@Unreal@RC@@QEBA_NXZ
    ?IsInternallyThreadSafe@FMalloc@Unreal@RC@@QEBA_NXZ
    ?IsIntrusiveOptionalValueSet@FProperty@Unreal@RC@@QEBA_NPEBX@Z
    ?IsInvalid@FCallbackMetadata@Internal@Hook@Unreal@RC@@QEBA_NW4memory_order@std@@@Z
    ?IsLocalizedResource@UObject@Unreal@RC@@QEBA_NXZ
    ?IsMemoryOnly@FOutputDevice@Unreal@RC@@QEBA_NXZ
    ?IsNameStableForNetworking@UObject@Unreal@RC@@QEBA_NXZ
    ?IsNativeBool@FBoolProperty@Unreal@RC@@QEAA_NXZ
    ?IsNone@FName@Unreal@RC@@QEBA_NXZ
    ?IsNumeric@?$TStringBase@D@Unreal@RC@@QEBA_NXZ
    ?IsNumeric@?$TStringBase@_Q@Unreal@RC@@QEBA_NXZ
    ?IsNumeric@?$TStringBase@_W@Unreal@RC@@QEBA_NXZ
    ?IsPendingKill@FUObjectItem@Unreal@RC@@QEBA_NXZ
    ?IsPostLoadThreadSafe@UObject@Unreal@RC@@QEBA_NXZ
    ?IsProcessEventAvailable@UE4SSRuntime@RC@@SA_NXZ
    ?IsReadOnly@FCallbackIterationDataCommonImpl@Internal@Hook@Unreal@RC@@QEBA_NXZ
    ?IsReadyForAsyncPostLoad@UObject@Unreal@RC@@QEBA_NXZ
    ?IsReadyForFinishDestroy@UObject@Unreal@RC@@QEAA_NXZ
    ?IsReal@UObject@Unreal@RC@@SA_NPEBX@Z
    ?IsRootSet@FUObjectItem@Unreal@RC@@QEAA_NXZ
    ?IsRootSet@UObject@Unreal@RC@@QEAA_NXZ
    ?IsSafeForRootSet@UObject@Unreal@RC@@QEBA_NXZ
    ?IsSet@FOptionalProperty@Unreal@RC@@QEBA_NPEBX@Z
    ?IsSet@FOptionalPropertyLayout@Unreal@RC@@QEBA_NPEBX@Z
    ?IsStructTrashed@UStruct@Unreal@RC@@QEBA_NXZ
    ?IsSupportedForNetworking@UObject@Unreal@RC@@QEBA_NXZ
    ?IsUClass@FFieldClassVariant@Unreal@RC@@AEBA_NXZ
    ?IsUObject@FFieldVariant@Unreal@RC@@QEBA_NXZ
    ?IsUnreachable@FUObjectItem@Unreal@RC@@QEBA_NXZ
    ?IsUnreachable@UObject@Unreal@RC@@QEAA_NXZ
    ?IsUnsignedInteger@?$TProperty_Numeric@C@Unreal@RC@@QEAA_NXZ
    ?IsUnsignedInteger@?$TProperty_Numeric@E@Unreal@RC@@QEAA_NXZ
    ?IsUnsignedInteger@?$TProperty_Numeric@F@Unreal@RC@@QEAA_NXZ
    ?IsUnsignedInteger@?$TProperty_Numeric@G@Unreal@RC@@QEAA_NXZ
    ?IsUnsignedInteger@?$TProperty_Numeric@H@Unreal@RC@@QEAA_NXZ
    ?IsUnsignedInteger@?$TProperty_Numeric@I@Unreal@RC@@QEAA_NXZ
    ?IsUnsignedInteger@?$TProperty_Numeric@M@Unreal@RC@@QEAA_NXZ
    ?IsUnsignedInteger@?$TProperty_Numeric@N@Unreal@RC@@QEAA_NXZ
    ?IsUnsignedInteger@?$TProperty_Numeric@_J@Unreal@RC@@QEAA_NXZ
    ?IsUnsignedInteger@?$TProperty_Numeric@_K@Unreal@RC@@QEAA_NXZ
    ?IsValid@FFieldClassVariant@Unreal@RC@@QEBA_NXZ
    ?IsValid@FFieldVariant@Unreal@RC@@QEAA_NXZ
    ?IsValid@FUObjectArray@Unreal@RC@@SA_NPEAUFUObjectItem@23@_N@Z
    ?IsValid@FUObjectItem@Unreal@RC@@QEBA_N_N@Z
    ?IsValid@ReflectedFunctionBase@Unreal@RC@@QEAA_NXZ
    ?IsValidIndex@?$TStringBase@D@Unreal@RC@@QEBA_NH@Z
    ?IsValidIndex@?$TStringBase@_Q@Unreal@RC@@QEBA_NH@Z
    ?IsValidIndex@?$TStringBase@_W@Unreal@RC@@QEBA_NH@Z
    ?IsValidIndex@FNameData@UEnum@Unreal@RC@@QEBA_NH@Z
    ?K2_DestroyActor@AActor@Unreal@RC@@QEAAXXZ
    ?K2_GetActorLocation@AActor@Unreal@RC@@QEAA?AUFVector@23@XZ
    ?K2_GetActorRotation@AActor@Unreal@RC@@QEAA?AUFRotator@23@XZ
    ?K2_GetComponentsByClass@AActor@Unreal@RC@@QEAA?AV?$TArray@PEAVUObject@Unreal@RC@@V?$TSizedDefaultAllocator@$0CA@@23@@23@PEAVUClass@23@@Z
    ?K2_SetActorLocation@AActor@Unreal@RC@@QEAA_NUFVector@23@_NAEAUFHitResult@23@1@Z
    ?K2_SetActorLocationAndRotation@AActor@Unreal@RC@@QEAA_NUFVector@23@UFRotator@23@_NAEAUFHitResult@23@2@Z
    ?K2_SetActorRotation@AActor@Unreal@RC@@QEAA_NUFRotator@23@_N@Z
    ?K2_TeleportTo@AActor@Unreal@RC@@QEAA_NUFVector@23@UFRotator@23@@Z
    ?KismetStringLibraryCDO@FName@Unreal@RC@@2PEAVUObject@23@EA
    ?Left@FAnsiString@Unreal@RC@@QEBA?AV123@H@Z
    ?Left@FString@Unreal@RC@@QEBA?AV123@H@Z
    ?Left@FUtf8String@Unreal@RC@@QEBA?AV123@H@Z
    ?Len@?$TStringBase@D@Unreal@RC@@QEBAHXZ
    ?Len@?$TStringBase@_Q@Unreal@RC@@QEBAHXZ
    ?Len@?$TStringBase@_W@Unreal@RC@@QEBAHXZ
    ?Link@FProperty@Unreal@RC@@QEAAHAEAVFArchive@23@@Z
    ?Link@UStruct@Unreal@RC@@QEAAXAEAVFArchive@23@_N@Z
    ?LinkInternal@FProperty@Unreal@RC@@IEAAXAEAVFArchive@23@@Z
    ?LinkInternal@UStruct@Unreal@RC@@2V?$Function@$$A6AXPEAVUStruct@Unreal@RC@@AEAVFArchive@23@_N@Z@3@A
    ?LinkWithoutChangingOffset@FProperty@Unreal@RC@@QEAAXAEAVFArchive@23@@Z
    ?LoadAllAssets@UAssetRegistry@Unreal@RC@@SAXXZ
    ?LoadAllAssetsThread@UAssetRegistry@Unreal@RC@@CAXXZ
    ?LoadExport@UnrealInitializer@Unreal@RC@@YAPEAXV?$basic_string_view@DU?$char_traits@D@std@@@std@@@Z
    ?LoadExport@UnrealInitializer@Unreal@RC@@YAPEAXV?$basic_string_view@_WU?$char_traits@_W@std@@@std@@@Z
    ?LoadMapInternal@UEngine@Unreal@RC@@2V?$Function@$$A6A_NPEAVUEngine@Unreal@RC@@AEAUFWorldContext@23@UFURL@23@PEAVUPendingNetGame@23@AEAVFString@23@@Z@3@A
    ?LoadObjectPropertyValue@FObjectPropertyBase@Unreal@RC@@QEBAPEAVUObject@23@PEBX@Z
    ?Locals@FFrame@Unreal@RC@@QEAAAEAPEAEXZ
    ?LockGUObjectArray@FUObjectArray@Unreal@RC@@QEAAXXZ
    ?Log@FCallbackIterationDataCommonImpl@Internal@Hook@Unreal@RC@@QEBAXV?$basic_string_view@_WU?$char_traits@_W@std@@@std@@@Z
    ?Log@FOutputDevice@Unreal@RC@@QEAAXPEB_W@Z
    ?Log@FOutputDevice@Unreal@RC@@QEBAXPEB_W@Z
    ?LogfImpl@FOutputDevice@Unreal@RC@@AEAAXPEB_WZZ
    ?LogfImpl@FOutputDevice@Unreal@RC@@AEAAXW4Type@ELogVerbosity@23@PEB_WZZ
    ?Major@Version@Unreal@RC@@2HA
    ?MakeDynamic@FNameData@UEnum@Unreal@RC@@QEAAXXZ
    ?MakeNewId@UnrealScriptFunctionData@Unreal@RC@@SAHXZ
    ?Malloc@FMalloc@Unreal@RC@@QEAAPEAX_KI@Z
    ?Malloc@FMemory@Unreal@RC@@SAPEAX_KI@Z
    ?MallocAndMemsetNewFrame@FFrame@Unreal@RC@@SAPEAU123@XZ
    ?MallocExternal@FMemory@Unreal@RC@@CAPEAX_KI@Z
    ?MarkAsEditorOnlySubobject@UObject@Unreal@RC@@QEAAXXZ
    ?MarkSetAndGetInitializedValuePointerToReplace@FOptionalProperty@Unreal@RC@@QEBAPEAXPEAX@Z
    ?MarkSetAndGetInitializedValuePointerToReplace@FOptionalPropertyLayout@Unreal@RC@@QEBAPEAXPEAX@Z
    ?MarkUnset@FOptionalProperty@Unreal@RC@@QEBAXPEAX@Z
    ?MarkUnset@FOptionalPropertyLayout@Unreal@RC@@QEBAXPEAX@Z
    ?MaskPointer@FNameData@UEnum@Unreal@RC@@2_KB
    ?MemberOffsets@AGameMode@Unreal@RC@@2V?$unordered_map@V?$basic_string@_WU?$char_traits@_W@std@@V?$allocator@_W@2@@std@@HU?$hash@V?$basic_string@_WU?$char_traits@_W@std@@V?$allocator@_W@2@@std@@@2@U?$equal_to@V?$basic_string@_WU?$char_traits@_W@std@@V?$allocator@_W@2@@std@@@2@V?$allocator@U?$pair@$$CBV?$basic_string@_WU?$char_traits@_W@std@@V?$allocator@_W@2@@std@@H@std@@@2@@std@@A
    ?MemberOffsets@AGameModeBase@Unreal@RC@@2V?$unordered_map@V?$basic_string@_WU?$char_traits@_W@std@@V?$allocator@_W@2@@std@@HU?$hash@V?$basic_string@_WU?$char_traits@_W@std@@V?$allocator@_W@2@@std@@@2@U?$equal_to@V?$basic_string@_WU?$char_traits@_W@std@@V?$allocator@_W@2@@std@@@2@V?$allocator@U?$pair@$$CBV?$basic_string@_WU?$char_traits@_W@std@@V?$allocator@_W@2@@std@@H@std@@@2@@std@@A
    ?MemberOffsets@FArrayProperty@Unreal@RC@@2V?$unordered_map@V?$basic_string@_WU?$char_traits@_W@std@@V?$allocator@_W@2@@std@@HU?$hash@V?$basic_string@_WU?$char_traits@_W@std@@V?$allocator@_W@2@@std@@@2@U?$equal_to@V?$basic_string@_WU?$char_traits@_W@std@@V?$allocator@_W@2@@std@@@2@V?$allocator@U?$pair@$$CBV?$basic_string@_WU?$char_traits@_W@std@@V?$allocator@_W@2@@std@@H@std@@@2@@std@@A
    ?MemberOffsets@FBoolProperty@Unreal@RC@@2V?$unordered_map@V?$basic_string@_WU?$char_traits@_W@std@@V?$allocator@_W@2@@std@@HU?$hash@V?$basic_string@_WU?$char_traits@_W@std@@V?$allocator@_W@2@@std@@@2@U?$equal_to@V?$basic_string@_WU?$char_traits@_W@std@@V?$allocator@_W@2@@std@@@2@V?$allocator@U?$pair@$$CBV?$basic_string@_WU?$char_traits@_W@std@@V?$allocator@_W@2@@std@@H@std@@@2@@std@@A
    ?MemberOffsets@FByteProperty@Unreal@RC@@2V?$unordered_map@V?$basic_string@_WU?$char_traits@_W@std@@V?$allocator@_W@2@@std@@HU?$hash@V?$basic_string@_WU?$char_traits@_W@std@@V?$allocator@_W@2@@std@@@2@U?$equal_to@V?$basic_string@_WU?$char_traits@_W@std@@V?$allocator@_W@2@@std@@@2@V?$allocator@U?$pair@$$CBV?$basic_string@_WU?$char_traits@_W@std@@V?$allocator@_W@2@@std@@H@std@@@2@@std@@A
    ?MemberOffsets@FClassProperty@Unreal@RC@@2V?$unordered_map@V?$basic_string@_WU?$char_traits@_W@std@@V?$allocator@_W@2@@std@@HU?$hash@V?$basic_string@_WU?$char_traits@_W@std@@V?$allocator@_W@2@@std@@@2@U?$equal_to@V?$basic_string@_WU?$char_traits@_W@std@@V?$allocator@_W@2@@std@@@2@V?$allocator@U?$pair@$$CBV?$basic_string@_WU?$char_traits@_W@std@@V?$allocator@_W@2@@std@@H@std@@@2@@std@@A
    ?MemberOffsets@FDelegateProperty@Unreal@RC@@2V?$unordered_map@V?$basic_string@_WU?$char_traits@_W@std@@V?$allocator@_W@2@@std@@HU?$hash@V?$basic_string@_WU?$char_traits@_W@std@@V?$allocator@_W@2@@std@@@2@U?$equal_to@V?$basic_string@_WU?$char_traits@_W@std@@V?$allocator@_W@2@@std@@@2@V?$allocator@U?$pair@$$CBV?$basic_string@_WU?$char_traits@_W@std@@V?$allocator@_W@2@@std@@H@std@@@2@@std@@A
    ?MemberOffsets@FEnumProperty@Unreal@RC@@2V?$unordered_map@V?$basic_string@_WU?$char_traits@_W@std@@V?$allocator@_W@2@@std@@HU?$hash@V?$basic_string@_WU?$char_traits@_W@std@@V?$allocator@_W@2@@std@@@2@U?$equal_to@V?$basic_string@_WU?$char_traits@_W@std@@V?$allocator@_W@2@@std@@@2@V?$allocator@U?$pair@$$CBV?$basic_string@_WU?$char_traits@_W@std@@V?$allocator@_W@2@@std@@H@std@@@2@@std@@A
    ?MemberOffsets@FField@Unreal@RC@@2V?$unordered_map@V?$basic_string@_WU?$char_traits@_W@std@@V?$allocator@_W@2@@std@@HU?$hash@V?$basic_string@_WU?$char_traits@_W@std@@V?$allocator@_W@2@@std@@@2@U?$equal_to@V?$basic_string@_WU?$char_traits@_W@std@@V?$allocator@_W@2@@std@@@2@V?$allocator@U?$pair@$$CBV?$basic_string@_WU?$char_traits@_W@std@@V?$allocator@_W@2@@std@@H@std@@@2@@std@@A
    ?MemberOffsets@FFieldClass@Unreal@RC@@2V?$unordered_map@V?$basic_string@_WU?$char_traits@_W@std@@V?$allocator@_W@2@@std@@HU?$hash@V?$basic_string@_WU?$char_traits@_W@std@@V?$allocator@_W@2@@std@@@2@U?$equal_to@V?$basic_string@_WU?$char_traits@_W@std@@V?$allocator@_W@2@@std@@@2@V?$allocator@U?$pair@$$CBV?$basic_string@_WU?$char_traits@_W@std@@V?$allocator@_W@2@@std@@H@std@@@2@@std@@A
    ?MemberOffsets@FFieldPathProperty@Unreal@RC@@2V?$unordered_map@V?$basic_string@_WU?$char_traits@_W@std@@V?$allocator@_W@2@@std@@HU?$hash@V?$basic_string@_WU?$char_traits@_W@std@@V?$allocator@_W@2@@std@@@2@U?$equal_to@V?$basic_string@_WU?$char_traits@_W@std@@V?$allocator@_W@2@@std@@@2@V?$allocator@U?$pair@$$CBV?$basic_string@_WU?$char_traits@_W@std@@V?$allocator@_W@2@@std@@H@std@@@2@@std@@A
    ?MemberOffsets@FInterfaceProperty@Unreal@RC@@2V?$unordered_map@V?$basic_string@_WU?$char_traits@_W@std@@V?$allocator@_W@2@@std@@HU?$hash@V?$basic_string@_WU?$char_traits@_W@std@@V?$allocator@_W@2@@std@@@2@U?$equal_to@V?$basic_string@_WU?$char_traits@_W@std@@V?$allocator@_W@2@@std@@@2@V?$allocator@U?$pair@$$CBV?$basic_string@_WU?$char_traits@_W@std@@V?$allocator@_W@2@@std@@H@std@@@2@@std@@A
    ?MemberOffsets@FMapProperty@Unreal@RC@@2V?$unordered_map@V?$basic_string@_WU?$char_traits@_W@std@@V?$allocator@_W@2@@std@@HU?$hash@V?$basic_string@_WU?$char_traits@_W@std@@V?$allocator@_W@2@@std@@@2@U?$equal_to@V?$basic_string@_WU?$char_traits@_W@std@@V?$allocator@_W@2@@std@@@2@V?$allocator@U?$pair@$$CBV?$basic_string@_WU?$char_traits@_W@std@@V?$allocator@_W@2@@std@@H@std@@@2@@std@@A
    ?MemberOffsets@FMulticastDelegateProperty@Unreal@RC@@2V?$unordered_map@V?$basic_string@_WU?$char_traits@_W@std@@V?$allocator@_W@2@@std@@HU?$hash@V?$basic_string@_WU?$char_traits@_W@std@@V?$allocator@_W@2@@std@@@2@U?$equal_to@V?$basic_string@_WU?$char_traits@_W@std@@V?$allocator@_W@2@@std@@@2@V?$allocator@U?$pair@$$CBV?$basic_string@_WU?$char_traits@_W@std@@V?$allocator@_W@2@@std@@H@std@@@2@@std@@A
    ?MemberOffsets@FObjectPropertyBase@Unreal@RC@@2V?$unordered_map@V?$basic_string@_WU?$char_traits@_W@std@@V?$allocator@_W@2@@std@@HU?$hash@V?$basic_string@_WU?$char_traits@_W@std@@V?$allocator@_W@2@@std@@@2@U?$equal_to@V?$basic_string@_WU?$char_traits@_W@std@@V?$allocator@_W@2@@std@@@2@V?$allocator@U?$pair@$$CBV?$basic_string@_WU?$char_traits@_W@std@@V?$allocator@_W@2@@std@@H@std@@@2@@std@@A
    ?MemberOffsets@FOutputDevice@Unreal@RC@@2V?$unordered_map@V?$basic_string@_WU?$char_traits@_W@std@@V?$allocator@_W@2@@std@@HU?$hash@V?$basic_string@_WU?$char_traits@_W@std@@V?$allocator@_W@2@@std@@@2@U?$equal_to@V?$basic_string@_WU?$char_traits@_W@std@@V?$allocator@_W@2@@std@@@2@V?$allocator@U?$pair@$$CBV?$basic_string@_WU?$char_traits@_W@std@@V?$allocator@_W@2@@std@@H@std@@@2@@std@@A
    ?MemberOffsets@FProperty@Unreal@RC@@2V?$unordered_map@V?$basic_string@_WU?$char_traits@_W@std@@V?$allocator@_W@2@@std@@HU?$hash@V?$basic_string@_WU?$char_traits@_W@std@@V?$allocator@_W@2@@std@@@2@U?$equal_to@V?$basic_string@_WU?$char_traits@_W@std@@V?$allocator@_W@2@@std@@@2@V?$allocator@U?$pair@$$CBV?$basic_string@_WU?$char_traits@_W@std@@V?$allocator@_W@2@@std@@H@std@@@2@@std@@A
    ?MemberOffsets@FSetProperty@Unreal@RC@@2V?$unordered_map@V?$basic_string@_WU?$char_traits@_W@std@@V?$allocator@_W@2@@std@@HU?$hash@V?$basic_string@_WU?$char_traits@_W@std@@V?$allocator@_W@2@@std@@@2@U?$equal_to@V?$basic_string@_WU?$char_traits@_W@std@@V?$allocator@_W@2@@std@@@2@V?$allocator@U?$pair@$$CBV?$basic_string@_WU?$char_traits@_W@std@@V?$allocator@_W@2@@std@@H@std@@@2@@std@@A
    ?MemberOffsets@FSoftClassProperty@Unreal@RC@@2V?$unordered_map@V?$basic_string@_WU?$char_traits@_W@std@@V?$allocator@_W@2@@std@@HU?$hash@V?$basic_string@_WU?$char_traits@_W@std@@V?$allocator@_W@2@@std@@@2@U?$equal_to@V?$basic_string@_WU?$char_traits@_W@std@@V?$allocator@_W@2@@std@@@2@V?$allocator@U?$pair@$$CBV?$basic_string@_WU?$char_traits@_W@std@@V?$allocator@_W@2@@std@@H@std@@@2@@std@@A
    ?MemberOffsets@FStructProperty@Unreal@RC@@2V?$unordered_map@V?$basic_string@_WU?$char_traits@_W@std@@V?$allocator@_W@2@@std@@HU?$hash@V?$basic_string@_WU?$char_traits@_W@std@@V?$allocator@_W@2@@std@@@2@U?$equal_to@V?$basic_string@_WU?$char_traits@_W@std@@V?$allocator@_W@2@@std@@@2@V?$allocator@U?$pair@$$CBV?$basic_string@_WU?$char_traits@_W@std@@V?$allocator@_W@2@@std@@H@std@@@2@@std@@A
    ?MemberOffsets@FUObjectArray@Unreal@RC@@2V?$unordered_map@V?$basic_string@_WU?$char_traits@_W@std@@V?$allocator@_W@2@@std@@HU?$hash@V?$basic_string@_WU?$char_traits@_W@std@@V?$allocator@_W@2@@std@@@2@U?$equal_to@V?$basic_string@_WU?$char_traits@_W@std@@V?$allocator@_W@2@@std@@@2@V?$allocator@U?$pair@$$CBV?$basic_string@_WU?$char_traits@_W@std@@V?$allocator@_W@2@@std@@H@std@@@2@@std@@A
    ?MemberOffsets@FUObjectItem@Unreal@RC@@2V?$unordered_map@V?$basic_string@_WU?$char_traits@_W@std@@V?$allocator@_W@2@@std@@HU?$hash@V?$basic_string@_WU?$char_traits@_W@std@@V?$allocator@_W@2@@std@@@2@U?$equal_to@V?$basic_string@_WU?$char_traits@_W@std@@V?$allocator@_W@2@@std@@@2@V?$allocator@U?$pair@$$CBV?$basic_string@_WU?$char_traits@_W@std@@V?$allocator@_W@2@@std@@H@std@@@2@@std@@A
    ?MemberOffsets@FWorldContext@Unreal@RC@@2V?$unordered_map@V?$basic_string@_WU?$char_traits@_W@std@@V?$allocator@_W@2@@std@@HU?$hash@V?$basic_string@_WU?$char_traits@_W@std@@V?$allocator@_W@2@@std@@@2@U?$equal_to@V?$basic_string@_WU?$char_traits@_W@std@@V?$allocator@_W@2@@std@@@2@V?$allocator@U?$pair@$$CBV?$basic_string@_WU?$char_traits@_W@std@@V?$allocator@_W@2@@std@@H@std@@@2@@std@@A
    ?MemberOffsets@ICppStructOps@UScriptStruct@Unreal@RC@@2V?$unordered_map@V?$basic_string@_WU?$char_traits@_W@std@@V?$allocator@_W@2@@std@@HU?$hash@V?$basic_string@_WU?$char_traits@_W@std@@V?$allocator@_W@2@@std@@@2@U?$equal_to@V?$basic_string@_WU?$char_traits@_W@std@@V?$allocator@_W@2@@std@@@2@V?$allocator@U?$pair@$$CBV?$basic_string@_WU?$char_traits@_W@std@@V?$allocator@_W@2@@std@@H@std@@@2@@std@@A
    ?MemberOffsets@TUObjectArray@Unreal@RC@@2V?$unordered_map@V?$basic_string@_WU?$char_traits@_W@std@@V?$allocator@_W@2@@std@@HU?$hash@V?$basic_string@_WU?$char_traits@_W@std@@V?$allocator@_W@2@@std@@@2@U?$equal_to@V?$basic_string@_WU?$char_traits@_W@std@@V?$allocator@_W@2@@std@@@2@V?$allocator@U?$pair@$$CBV?$basic_string@_WU?$char_traits@_W@std@@V?$allocator@_W@2@@std@@H@std@@@2@@std@@A
    ?MemberOffsets@UClass@Unreal@RC@@2V?$unordered_map@V?$basic_string@_WU?$char_traits@_W@std@@V?$allocator@_W@2@@std@@HU?$hash@V?$basic_string@_WU?$char_traits@_W@std@@V?$allocator@_W@2@@std@@@2@U?$equal_to@V?$basic_string@_WU?$char_traits@_W@std@@V?$allocator@_W@2@@std@@@2@V?$allocator@U?$pair@$$CBV?$basic_string@_WU?$char_traits@_W@std@@V?$allocator@_W@2@@std@@H@std@@@2@@std@@A
    ?MemberOffsets@UDataTable@Unreal@RC@@2V?$unordered_map@V?$basic_string@_WU?$char_traits@_W@std@@V?$allocator@_W@2@@std@@HU?$hash@V?$basic_string@_WU?$char_traits@_W@std@@V?$allocator@_W@2@@std@@@2@U?$equal_to@V?$basic_string@_WU?$char_traits@_W@std@@V?$allocator@_W@2@@std@@@2@V?$allocator@U?$pair@$$CBV?$basic_string@_WU?$char_traits@_W@std@@V?$allocator@_W@2@@std@@H@std@@@2@@std@@A
    ?MemberOffsets@UEnum@Unreal@RC@@2V?$unordered_map@V?$basic_string@_WU?$char_traits@_W@std@@V?$allocator@_W@2@@std@@HU?$hash@V?$basic_string@_WU?$char_traits@_W@std@@V?$allocator@_W@2@@std@@@2@U?$equal_to@V?$basic_string@_WU?$char_traits@_W@std@@V?$allocator@_W@2@@std@@@2@V?$allocator@U?$pair@$$CBV?$basic_string@_WU?$char_traits@_W@std@@V?$allocator@_W@2@@std@@H@std@@@2@@std@@A
    ?MemberOffsets@UField@Unreal@RC@@2V?$unordered_map@V?$basic_string@_WU?$char_traits@_W@std@@V?$allocator@_W@2@@std@@HU?$hash@V?$basic_string@_WU?$char_traits@_W@std@@V?$allocator@_W@2@@std@@@2@U?$equal_to@V?$basic_string@_WU?$char_traits@_W@std@@V?$allocator@_W@2@@std@@@2@V?$allocator@U?$pair@$$CBV?$basic_string@_WU?$char_traits@_W@std@@V?$allocator@_W@2@@std@@H@std@@@2@@std@@A
    ?MemberOffsets@UFunction@Unreal@RC@@2V?$unordered_map@V?$basic_string@_WU?$char_traits@_W@std@@V?$allocator@_W@2@@std@@HU?$hash@V?$basic_string@_WU?$char_traits@_W@std@@V?$allocator@_W@2@@std@@@2@U?$equal_to@V?$basic_string@_WU?$char_traits@_W@std@@V?$allocator@_W@2@@std@@@2@V?$allocator@U?$pair@$$CBV?$basic_string@_WU?$char_traits@_W@std@@V?$allocator@_W@2@@std@@H@std@@@2@@std@@A
    ?MemberOffsets@ULocalPlayer@Unreal@RC@@2V?$unordered_map@V?$basic_string@_WU?$char_traits@_W@std@@V?$allocator@_W@2@@std@@HU?$hash@V?$basic_string@_WU?$char_traits@_W@std@@V?$allocator@_W@2@@std@@@2@U?$equal_to@V?$basic_string@_WU?$char_traits@_W@std@@V?$allocator@_W@2@@std@@@2@V?$allocator@U?$pair@$$CBV?$basic_string@_WU?$char_traits@_W@std@@V?$allocator@_W@2@@std@@H@std@@@2@@std@@A
    ?MemberOffsets@UObjectBase@Unreal@RC@@2V?$unordered_map@V?$basic_string@_WU?$char_traits@_W@std@@V?$allocator@_W@2@@std@@HU?$hash@V?$basic_string@_WU?$char_traits@_W@std@@V?$allocator@_W@2@@std@@@2@U?$equal_to@V?$basic_string@_WU?$char_traits@_W@std@@V?$allocator@_W@2@@std@@@2@V?$allocator@U?$pair@$$CBV?$basic_string@_WU?$char_traits@_W@std@@V?$allocator@_W@2@@std@@H@std@@@2@@std@@A
    ?MemberOffsets@UPlayer@Unreal@RC@@2V?$unordered_map@V?$basic_string@_WU?$char_traits@_W@std@@V?$allocator@_W@2@@std@@HU?$hash@V?$basic_string@_WU?$char_traits@_W@std@@V?$allocator@_W@2@@std@@@2@U?$equal_to@V?$basic_string@_WU?$char_traits@_W@std@@V?$allocator@_W@2@@std@@@2@V?$allocator@U?$pair@$$CBV?$basic_string@_WU?$char_traits@_W@std@@V?$allocator@_W@2@@std@@H@std@@@2@@std@@A
    ?MemberOffsets@UScriptStruct@Unreal@RC@@2V?$unordered_map@V?$basic_string@_WU?$char_traits@_W@std@@V?$allocator@_W@2@@std@@HU?$hash@V?$basic_string@_WU?$char_traits@_W@std@@V?$allocator@_W@2@@std@@@2@U?$equal_to@V?$basic_string@_WU?$char_traits@_W@std@@V?$allocator@_W@2@@std@@@2@V?$allocator@U?$pair@$$CBV?$basic_string@_WU?$char_traits@_W@std@@V?$allocator@_W@2@@std@@H@std@@@2@@std@@A
    ?MemberOffsets@USparseDelegateFunction@Unreal@RC@@2V?$unordered_map@V?$basic_string@_WU?$char_traits@_W@std@@V?$allocator@_W@2@@std@@HU?$hash@V?$basic_string@_WU?$char_traits@_W@std@@V?$allocator@_W@2@@std@@@2@U?$equal_to@V?$basic_string@_WU?$char_traits@_W@std@@V?$allocator@_W@2@@std@@@2@V?$allocator@U?$pair@$$CBV?$basic_string@_WU?$char_traits@_W@std@@V?$allocator@_W@2@@std@@H@std@@@2@@std@@A
    ?MemberOffsets@UStruct@Unreal@RC@@2V?$unordered_map@V?$basic_string@_WU?$char_traits@_W@std@@V?$allocator@_W@2@@std@@HU?$hash@V?$basic_string@_WU?$char_traits@_W@std@@V?$allocator@_W@2@@std@@@2@U?$equal_to@V?$basic_string@_WU?$char_traits@_W@std@@V?$allocator@_W@2@@std@@@2@V?$allocator@U?$pair@$$CBV?$basic_string@_WU?$char_traits@_W@std@@V?$allocator@_W@2@@std@@H@std@@@2@@std@@A
    ?MemberOffsets@UWorld@Unreal@RC@@2V?$unordered_map@V?$basic_string@_WU?$char_traits@_W@std@@V?$allocator@_W@2@@std@@HU?$hash@V?$basic_string@_WU?$char_traits@_W@std@@V?$allocator@_W@2@@std@@@2@U?$equal_to@V?$basic_string@_WU?$char_traits@_W@std@@V?$allocator@_W@2@@std@@@2@V?$allocator@U?$pair@$$CBV?$basic_string@_WU?$char_traits@_W@std@@V?$allocator@_W@2@@std@@H@std@@@2@@std@@A
    ?Memcpy@FGenericPlatformString@Unreal@RC@@CAPEAXPEAXPEBX_K@Z
    ?Mid@FAnsiString@Unreal@RC@@QEBA?AV123@HH@Z
    ?Mid@FString@Unreal@RC@@QEBA?AV123@HH@Z
    ?Mid@FUtf8String@Unreal@RC@@QEBA?AV123@HH@Z
    ?Minor@Version@Unreal@RC@@2HA
    ?MostRecentProperty@FFrame@Unreal@RC@@QEAAAEAPEAVFProperty@23@XZ
    ?MostRecentPropertyAddress@FFrame@Unreal@RC@@QEAAAEAPEAEXZ
    ?MostRecentPropertyContainer@FFrame@Unreal@RC@@QEAAAEAPEAEXZ
    ?NeedsLoadForClient@FField@Unreal@RC@@QEBA_NXZ
    ?NeedsLoadForClient@UObject@Unreal@RC@@QEBA_NXZ
    ?NeedsLoadForEditorGame@UObject@Unreal@RC@@QEBA_NXZ
    ?NeedsLoadForServer@FField@Unreal@RC@@QEBA_NXZ
    ?NeedsLoadForServer@UObject@Unreal@RC@@QEBA_NXZ
    ?NeedsLoadForTargetPlatform@UObject@Unreal@RC@@QEBA_NPEBVITargetPlatform@23@@Z
    ?NetSerializeItem@FProperty@Unreal@RC@@QEBA_NAEAVFArchive@23@PEAPEAXPEAXPEAV?$TArray@EV?$TSizedDefaultAllocator@$0CA@@Unreal@RC@@@23@@Z
    ?NewChunkIDsUnsafe@FAssetData@Unreal@RC@@QEAAAEAV?$TArray@HV?$TSizedInlineAllocator@$01$0CA@V?$TSizedDefaultAllocator@$0CA@@Unreal@RC@@@Unreal@RC@@@23@XZ
    ?Node@FFrame@Unreal@RC@@QEAAAEAPEAVUFunction@23@XZ
    ?NotifyUObjectCreated@FClassCreateListener@Unreal@RC@@UEAAXPEBVUObjectBase@23@H@Z
    ?NotifyUObjectDeleted@FClassDeleteListener@Unreal@RC@@UEAAXPEBVUObjectBase@23@H@Z
    ?Num@FNameData@UEnum@Unreal@RC@@QEBAHXZ
    ?NumElementsPerChunk@TUObjectArray@Unreal@RC@@2HB
    ?NumEnums@UEnum@Unreal@RC@@QEAAHXZ
    ?NumRequiredObjectsConstructed@StaticStorage@Hook@Unreal@RC@@2HA
    ?Object@FFrame@Unreal@RC@@QEAAAEAPEAVUObject@23@XZ
    ?ObjectPath@FAssetData@Unreal@RC@@QEAA?AVFName@23@XZ
    ?OldChunkIDsUnsafe@FAssetData@Unreal@RC@@QEAAAEAV?$TArray@HV?$TSizedDefaultAllocator@$0CA@@Unreal@RC@@@23@XZ
    ?OnClusterMarkedAsPendingKill@UObjectBaseUtility@Unreal@RC@@QEAAXXZ
    ?OnInvalidAlignedHeapAllocatorNum@Private@Core@UE@Unreal@RC@@YAXH_K@Z
    ?OnInvalidArrayNum@Private@Core@UE@Unreal@RC@@YAX_K@Z
    ?OnInvalidSetNum@Private@Core@UE@Unreal@RC@@YAX_K@Z
    ?OnInvalidSizedHeapAllocatorNum@Private@Core@UE@Unreal@RC@@YAXH_J_K@Z
    ?OnUObjectArrayShutdown@FClassCreateListener@Unreal@RC@@UEAAXXZ
    ?OnUObjectArrayShutdown@FClassDeleteListener@Unreal@RC@@UEAAXXZ
    ?OrderedForEachPropertyInChain@UStruct@Unreal@RC@@QEAA?AU?$TReverseFieldRange@VFProperty@Unreal@RC@@@23@XZ
    ?OriginalFunctionCallPrevented@FCallbackIterationDataCommonImpl@Internal@Hook@Unreal@RC@@QEBA_NXZ
    ?OutParms@FFrame@Unreal@RC@@QEAAAEAPEAUFOutParmRec@23@XZ
    ?OverridePerObjectConfigSection@UObject@Unreal@RC@@QEAAXAEAVFString@23@@Z
    ?PackageFlags@FAssetData@Unreal@RC@@QEAAIXZ
    ?PackageName@FAssetData@Unreal@RC@@QEAA?AVFName@23@XZ
    ?PackagePath@FAssetData@Unreal@RC@@QEAA?AVFName@23@XZ
    ?PassCPPArgsByRef@FProperty@Unreal@RC@@QEBA_NXZ
    ?PostCDOContruct@UObject@Unreal@RC@@QEAAXXZ
    ?PostDuplicate@FField@Unreal@RC@@QEAAXAEBV123@@Z
    ?PostDuplicate@FField@Unreal@RC@@QEAAX_N@Z
    ?PostDuplicate@UObject@Unreal@RC@@QEAAX_N@Z
    ?PostEditImport@UObject@Unreal@RC@@QEAAXXZ
    ?PostInitProperties@UObject@Unreal@RC@@QEAAXXZ
    ?PostInterpChange@UObject@Unreal@RC@@QEAAXPEAVFProperty@23@@Z
    ?PostLoad@FField@Unreal@RC@@QEAAXXZ
    ?PostLoad@UObject@Unreal@RC@@QEAAXXZ
    ?PostLoadSubobjects@UObject@Unreal@RC@@QEAAXPEAUFObjectInstancingGraph@23@@Z
    ?PostNetReceive@UObject@Unreal@RC@@QEAAXXZ
    ?PostReloadConfig@UObject@Unreal@RC@@QEAAXPEAVFProperty@23@@Z
    ?PostRename@UObject@Unreal@RC@@QEAAXPEAV123@VFName@23@@Z
    ?PostRepNotifies@UObject@Unreal@RC@@QEAAXXZ
    ?PostSaveRoot@UObject@Unreal@RC@@QEAAX_N@Z
    ?PreDestroyFromReplication@UObject@Unreal@RC@@QEAAXXZ
    ?PreDuplicate@UObject@Unreal@RC@@QEAAXAEAPEAX@Z
    ?PreInitialize@UnrealInitializer@Unreal@RC@@YAXAEBUConfig@123@@Z
    ?PreNetReceive@UObject@Unreal@RC@@QEAAXXZ
    ?PreSave@UObject@Unreal@RC@@QEAAXPEBVITargetPlatform@23@@Z
    ?PreSaveRoot@UObject@Unreal@RC@@QEAA_NPEB_W@Z
    ?PreventOriginalFunctionCall@FCallbackIterationDataCommonImpl@Internal@Hook@Unreal@RC@@QEAAXXZ
    ?PreviousFrame@FFrame@Unreal@RC@@QEAAAEAPEAU123@XZ
    ?PreviousTrackingFrame@FFrame@Unreal@RC@@QEAAAEAPEAU123@XZ
    ?Printf@FString@Unreal@RC@@SA?AV123@PEB_WZZ
    ?ProcessConsoleExec@UObject@Unreal@RC@@QEAA_NPEB_WAEAVFOutputDevice@23@PEAV123@@Z
    ?ProcessConsoleExecInternal@UObject@Unreal@RC@@2V?$Function@$$A6A_NPEAVUObject@Unreal@RC@@PEB_WAEAVFOutputDevice@23@0@Z@3@A
    ?ProcessEvent@UObject@Unreal@RC@@QEAAXPEAVUFunction@23@PEAX@Z
    ?ProcessEventInternal@UObject@Unreal@RC@@2V?$Function@$$A6AXPEAVUObject@Unreal@RC@@PEAVUFunction@23@PEAX@Z@3@A
    ?ProcessInternalInternal@UObject@Unreal@RC@@2V?$Function@$$A6AXPEAVUObject@Unreal@RC@@AEAUFFrame@23@PEAX@Z@3@A
    ?ProcessLocalScriptFunctionInternal@UObject@Unreal@RC@@2V?$Function@$$A6AXPEAVUObject@Unreal@RC@@AEAUFFrame@23@PEAX@Z@3@A
    ?PropertyChainForCompiledIn@FFrame@Unreal@RC@@QEAAAEAPEAVFField@23@XZ
    ?PropertyNameToDisplayName@UStruct@Unreal@RC@@QEBA?AVFString@23@VFName@23@@Z
    ?QuantizeSize@FMalloc@Unreal@RC@@QEAA_K_KI@Z
    ?QuantizeSize@FMemory@Unreal@RC@@SA_K_KI@Z
    ?QuantizeSizeExternal@FMemory@Unreal@RC@@CA_K_KI@Z
    ?Quaternion@FRotator@Unreal@RC@@QEBA?AUFQuat@23@XZ
    ?Realloc@FMalloc@Unreal@RC@@QEAAPEAXPEAX_KI@Z
    ?Realloc@FMemory@Unreal@RC@@SAPEAXPEAX_KI@Z
    ?ReallocExternal@FMemory@Unreal@RC@@CAPEAXPEAX_KI@Z
    ?Reallocate@FNameData@UEnum@Unreal@RC@@QEAAXH@Z
    ?RegenerateClass@UObject@Unreal@RC@@QEAAPEAVUClass@23@PEAV423@PEAV123@@Z
    ?RegisterAActorTickPostCallback@Hook@Unreal@RC@@YAXV?$function@$$A6AXPEAVAActor@Unreal@RC@@M@Z@std@@@Z
    ?RegisterAActorTickPostCallback@Hook@Unreal@RC@@YA_KV?$function@$$A6AXAEAV?$TCallbackIterationData@X@Hook@Unreal@RC@@PEAVAActor@34@M@Z@std@@UFCallbackOptions@123@@Z
    ?RegisterAActorTickPreCallback@Hook@Unreal@RC@@YAXV?$function@$$A6AXPEAVAActor@Unreal@RC@@M@Z@std@@@Z
    ?RegisterAActorTickPreCallback@Hook@Unreal@RC@@YA_KV?$function@$$A6AXAEAV?$TCallbackIterationData@X@Hook@Unreal@RC@@PEAVAActor@34@M@Z@std@@UFCallbackOptions@123@@Z
    ?RegisterBeginPlayPostCallback@Hook@Unreal@RC@@YAXV?$function@$$A6AXPEAVAActor@Unreal@RC@@@Z@std@@@Z
    ?RegisterBeginPlayPostCallback@Hook@Unreal@RC@@YA_KV?$function@$$A6AXAEAV?$TCallbackIterationData@X@Hook@Unreal@RC@@PEAVAActor@34@@Z@std@@UFCallbackOptions@123@@Z
    ?RegisterBeginPlayPreCallback@Hook@Unreal@RC@@YAXV?$function@$$A6AXPEAVAActor@Unreal@RC@@@Z@std@@@Z
    ?RegisterBeginPlayPreCallback@Hook@Unreal@RC@@YA_KV?$function@$$A6AXAEAV?$TCallbackIterationData@X@Hook@Unreal@RC@@PEAVAActor@34@@Z@std@@UFCallbackOptions@123@@Z
    ?RegisterCallFunctionByNameWithArgumentsPostCallback@Hook@Unreal@RC@@YAXV?$function@$$A6A?AU?$pair@_N_N@std@@PEAVUObject@Unreal@RC@@PEB_WAEAVFOutputDevice@45@0_N@Z@std@@@Z
    ?RegisterCallFunctionByNameWithArgumentsPostCallback@Hook@Unreal@RC@@YA_KV?$function@$$A6AXAEAV?$TCallbackIterationData@_N@Hook@Unreal@RC@@PEAVUObject@34@PEB_WAEAVFOutputDevice@34@1_N@Z@std@@UFCallbackOptions@123@@Z
    ?RegisterCallFunctionByNameWithArgumentsPreCallback@Hook@Unreal@RC@@YAXV?$function@$$A6A?AU?$pair@_N_N@std@@PEAVUObject@Unreal@RC@@PEB_WAEAVFOutputDevice@45@0_N@Z@std@@@Z
    ?RegisterCallFunctionByNameWithArgumentsPreCallback@Hook@Unreal@RC@@YA_KV?$function@$$A6AXAEAV?$TCallbackIterationData@_N@Hook@Unreal@RC@@PEAVUObject@34@PEB_WAEAVFOutputDevice@34@1_N@Z@std@@UFCallbackOptions@123@@Z
    ?RegisterDependencies@UObjectBase@Unreal@RC@@QEAAXXZ
    ?RegisterEndPlayPostCallback@Hook@Unreal@RC@@YAXV?$function@$$A6AXPEAVAActor@Unreal@RC@@W4EEndPlayReason@23@@Z@std@@@Z
    ?RegisterEndPlayPostCallback@Hook@Unreal@RC@@YA_KV?$function@$$A6AXAEAV?$TCallbackIterationData@X@Hook@Unreal@RC@@PEAVAActor@34@W4EEndPlayReason@34@@Z@std@@UFCallbackOptions@123@@Z
    ?RegisterEndPlayPreCallback@Hook@Unreal@RC@@YAXV?$function@$$A6AXPEAVAActor@Unreal@RC@@W4EEndPlayReason@23@@Z@std@@@Z
    ?RegisterEndPlayPreCallback@Hook@Unreal@RC@@YA_KV?$function@$$A6AXAEAV?$TCallbackIterationData@X@Hook@Unreal@RC@@PEAVAActor@34@W4EEndPlayReason@34@@Z@std@@UFCallbackOptions@123@@Z
    ?RegisterEngineTickPostCallback@Hook@Unreal@RC@@YAXV?$function@$$A6AXPEAVUEngine@Unreal@RC@@M@Z@std@@@Z
    ?RegisterEngineTickPostCallback@Hook@Unreal@RC@@YA_KV?$function@$$A6AXAEAV?$TCallbackIterationData@X@Hook@Unreal@RC@@PEAVUEngine@34@M_N@Z@std@@UFCallbackOptions@123@@Z
    ?RegisterEngineTickPreCallback@Hook@Unreal@RC@@YAXV?$function@$$A6AXPEAVUEngine@Unreal@RC@@M@Z@std@@@Z
    ?RegisterEngineTickPreCallback@Hook@Unreal@RC@@YA_KV?$function@$$A6AXAEAV?$TCallbackIterationData@X@Hook@Unreal@RC@@PEAVUEngine@34@M_N@Z@std@@UFCallbackOptions@123@@Z
    ?RegisterGameViewportClientTickPostCallback@Hook@Unreal@RC@@YAXV?$function@$$A6AXPEAVUGameViewportClient@Unreal@RC@@M@Z@std@@@Z
    ?RegisterGameViewportClientTickPostCallback@Hook@Unreal@RC@@YA_KV?$function@$$A6AXAEAV?$TCallbackIterationData@X@Hook@Unreal@RC@@PEAVUGameViewportClient@34@M@Z@std@@UFCallbackOptions@123@@Z
    ?RegisterGameViewportClientTickPreCallback@Hook@Unreal@RC@@YAXV?$function@$$A6AXPEAVUGameViewportClient@Unreal@RC@@M@Z@std@@@Z
    ?RegisterGameViewportClientTickPreCallback@Hook@Unreal@RC@@YA_KV?$function@$$A6AXAEAV?$TCallbackIterationData@X@Hook@Unreal@RC@@PEAVUGameViewportClient@34@M@Z@std@@UFCallbackOptions@123@@Z
    ?RegisterHook@UObjectGlobals@Unreal@RC@@YA?AU?$pair@HH@std@@AEBV?$basic_string@_WU?$char_traits@_W@std@@V?$allocator@_W@2@@5@V?$function@$$A6AXAEAVUnrealScriptFunctionCallableContext@Unreal@RC@@PEAX@Z@5@1PEAX@Z
    ?RegisterHook@UObjectGlobals@Unreal@RC@@YA?AU?$pair@HH@std@@PEAVUFunction@23@V?$function@$$A6AXAEAVUnrealScriptFunctionCallableContext@Unreal@RC@@PEAX@Z@5@1PEAX@Z
    ?RegisterInitGameStatePostCallback@Hook@Unreal@RC@@YAXV?$function@$$A6AXPEAVAGameModeBase@Unreal@RC@@@Z@std@@@Z
    ?RegisterInitGameStatePostCallback@Hook@Unreal@RC@@YA_KV?$function@$$A6AXAEAV?$TCallbackIterationData@X@Hook@Unreal@RC@@PEAVAGameModeBase@34@@Z@std@@UFCallbackOptions@123@@Z
    ?RegisterInitGameStatePreCallback@Hook@Unreal@RC@@YAXV?$function@$$A6AXPEAVAGameModeBase@Unreal@RC@@@Z@std@@@Z
    ?RegisterInitGameStatePreCallback@Hook@Unreal@RC@@YA_KV?$function@$$A6AXAEAV?$TCallbackIterationData@X@Hook@Unreal@RC@@PEAVAGameModeBase@34@@Z@std@@UFCallbackOptions@123@@Z
    ?RegisterLoadMapPostCallback@Hook@Unreal@RC@@YAXV?$function@$$A6A?AU?$pair@_N_N@std@@PEAVUEngine@Unreal@RC@@AEAUFWorldContext@45@UFURL@45@PEAVUPendingNetGame@45@AEAVFString@45@@Z@std@@@Z
    ?RegisterLoadMapPostCallback@Hook@Unreal@RC@@YA_KV?$function@$$A6AXAEAV?$TCallbackIterationData@_N@Hook@Unreal@RC@@PEAVUEngine@34@AEAUFWorldContext@34@UFURL@34@PEAVUPendingNetGame@34@AEAVFString@34@@Z@std@@UFCallbackOptions@123@@Z
    ?RegisterLoadMapPreCallback@Hook@Unreal@RC@@YAXV?$function@$$A6A?AU?$pair@_N_N@std@@PEAVUEngine@Unreal@RC@@AEAUFWorldContext@45@UFURL@45@PEAVUPendingNetGame@45@AEAVFString@45@@Z@std@@@Z
    ?RegisterLoadMapPreCallback@Hook@Unreal@RC@@YA_KV?$function@$$A6AXAEAV?$TCallbackIterationData@_N@Hook@Unreal@RC@@PEAVUEngine@34@AEAUFWorldContext@34@UFURL@34@PEAVUPendingNetGame@34@AEAVFString@34@@Z@std@@UFCallbackOptions@123@@Z
    ?RegisterPostHook@UFunction@Unreal@RC@@QEAAHAEBV?$function@$$A6AXAEAVUnrealScriptFunctionCallableContext@Unreal@RC@@PEAX@Z@std@@PEAX@Z
    ?RegisterPostHookForInstance@UFunction@Unreal@RC@@QEAAHAEBV?$function@$$A6AXAEAVUnrealScriptFunctionCallableContext@Unreal@RC@@PEAX@Z@std@@PEAXPEAVUObject@23@@Z
    ?RegisterPreHook@UFunction@Unreal@RC@@QEAAHAEBV?$function@$$A6AXAEAVUnrealScriptFunctionCallableContext@Unreal@RC@@PEAX@Z@std@@PEAX@Z
    ?RegisterPreHookForInstance@UFunction@Unreal@RC@@QEAAHAEBV?$function@$$A6AXAEAVUnrealScriptFunctionCallableContext@Unreal@RC@@PEAX@Z@std@@PEAXPEAVUObject@23@@Z
    ?RegisterProcessConsoleExecCallback@Hook@Unreal@RC@@YAXV?$function@$$A6A_NPEAVUObject@Unreal@RC@@PEB_WAEAVFOutputDevice@23@0@Z@std@@@Z
    ?RegisterProcessConsoleExecCallback@Hook@Unreal@RC@@YA_KV?$function@$$A6AXAEAV?$TCallbackIterationData@_N@Hook@Unreal@RC@@PEAVUObject@34@PEB_WAEAVFOutputDevice@34@1@Z@std@@UFCallbackOptions@123@@Z
    ?RegisterProcessConsoleExecGlobalPostCallback@Hook@Unreal@RC@@YAXV?$function@$$A6A?AU?$pair@_N_N@std@@PEAVUObject@Unreal@RC@@PEB_WAEAVFOutputDevice@45@0@Z@std@@@Z
    ?RegisterProcessConsoleExecGlobalPostCallback@Hook@Unreal@RC@@YA_KV?$function@$$A6AXAEAV?$TCallbackIterationData@_N@Hook@Unreal@RC@@PEAVUObject@34@PEB_WAEAVFOutputDevice@34@1@Z@std@@UFCallbackOptions@123@@Z
    ?RegisterProcessConsoleExecGlobalPreCallback@Hook@Unreal@RC@@YAXV?$function@$$A6A?AU?$pair@_N_N@std@@PEAVUObject@Unreal@RC@@PEB_WAEAVFOutputDevice@45@0@Z@std@@@Z
    ?RegisterProcessConsoleExecGlobalPreCallback@Hook@Unreal@RC@@YA_KV?$function@$$A6AXAEAV?$TCallbackIterationData@_N@Hook@Unreal@RC@@PEAVUObject@34@PEB_WAEAVFOutputDevice@34@1@Z@std@@UFCallbackOptions@123@@Z
    ?RegisterProcessEventPostCallback@Hook@Unreal@RC@@YAXV?$function@$$A6AXPEAVUObject@Unreal@RC@@PEAVUFunction@23@PEAX@Z@std@@@Z
    ?RegisterProcessEventPostCallback@Hook@Unreal@RC@@YA_KV?$function@$$A6AXAEAV?$TCallbackIterationData@X@Hook@Unreal@RC@@PEAVUObject@34@PEAVUFunction@34@PEAX@Z@std@@UFCallbackOptions@123@@Z
    ?RegisterProcessEventPreCallback@Hook@Unreal@RC@@YAXV?$function@$$A6AXPEAVUObject@Unreal@RC@@PEAVUFunction@23@PEAX@Z@std@@@Z
    ?RegisterProcessEventPreCallback@Hook@Unreal@RC@@YA_KV?$function@$$A6AXAEAV?$TCallbackIterationData@X@Hook@Unreal@RC@@PEAVUObject@34@PEAVUFunction@34@PEAX@Z@std@@UFCallbackOptions@123@@Z
    ?RegisterProcessInternalPostCallback@Hook@Unreal@RC@@YAXV?$function@$$A6AXPEAVUObject@Unreal@RC@@AEAUFFrame@23@PEAX@Z@std@@@Z
    ?RegisterProcessInternalPostCallback@Hook@Unreal@RC@@YA_KV?$function@$$A6AXAEAV?$TCallbackIterationData@X@Hook@Unreal@RC@@PEAVUObject@34@AEAUFFrame@34@PEAX@Z@std@@UFCallbackOptions@123@@Z
    ?RegisterProcessInternalPreCallback@Hook@Unreal@RC@@YAXV?$function@$$A6AXPEAVUObject@Unreal@RC@@AEAUFFrame@23@PEAX@Z@std@@@Z
    ?RegisterProcessInternalPreCallback@Hook@Unreal@RC@@YA_KV?$function@$$A6AXAEAV?$TCallbackIterationData@X@Hook@Unreal@RC@@PEAVUObject@34@AEAUFFrame@34@PEAX@Z@std@@UFCallbackOptions@123@@Z
    ?RegisterProcessLocalScriptFunctionPostCallback@Hook@Unreal@RC@@YAXV?$function@$$A6AXPEAVUObject@Unreal@RC@@AEAUFFrame@23@PEAX@Z@std@@@Z
    ?RegisterProcessLocalScriptFunctionPostCallback@Hook@Unreal@RC@@YA_KV?$function@$$A6AXAEAV?$TCallbackIterationData@X@Hook@Unreal@RC@@PEAVUObject@34@AEAUFFrame@34@PEAX@Z@std@@UFCallbackOptions@123@@Z
    ?RegisterProcessLocalScriptFunctionPreCallback@Hook@Unreal@RC@@YAXV?$function@$$A6AXPEAVUObject@Unreal@RC@@AEAUFFrame@23@PEAX@Z@std@@@Z
    ?RegisterProcessLocalScriptFunctionPreCallback@Hook@Unreal@RC@@YA_KV?$function@$$A6AXAEAV?$TCallbackIterationData@X@Hook@Unreal@RC@@PEAVUObject@34@AEAUFFrame@34@PEAX@Z@std@@UFCallbackOptions@123@@Z
    ?RegisterStaticConstructObjectPostCallback@Hook@Unreal@RC@@YAXV?$function@$$A6APEAVUObject@Unreal@RC@@AEBUFStaticConstructObjectParameters@23@PEAV123@@Z@std@@@Z
    ?RegisterStaticConstructObjectPostCallback@Hook@Unreal@RC@@YA_KV?$function@$$A6AXAEAV?$TCallbackIterationData@PEAVUObject@Unreal@RC@@@Hook@Unreal@RC@@AEBUFStaticConstructObjectParameters@34@@Z@std@@UFCallbackOptions@123@@Z
    ?RegisterStaticConstructObjectPreCallback@Hook@Unreal@RC@@YAXV?$function@$$A6APEAVUObject@Unreal@RC@@AEBUFStaticConstructObjectParameters@23@@Z@std@@@Z
    ?RegisterStaticConstructObjectPreCallback@Hook@Unreal@RC@@YA_KV?$function@$$A6AXAEAV?$TCallbackIterationData@PEAVUObject@Unreal@RC@@@Hook@Unreal@RC@@AEBUFStaticConstructObjectParameters@34@@Z@std@@UFCallbackOptions@123@@Z
    ?RegisterULocalPlayerExecPostCallback@Hook@Unreal@RC@@YAXV?$function@$$A6A?AUULocalPlayerExecCallbackReturnValue@Hook@Unreal@RC@@PEAVULocalPlayer@34@PEAVUWorld@34@PEB_WAEAVFOutputDevice@34@@Z@std@@@Z
    ?RegisterULocalPlayerExecPostCallback@Hook@Unreal@RC@@YA_KV?$function@$$A6AXAEAV?$TCallbackIterationData@_N@Hook@Unreal@RC@@PEAVULocalPlayer@34@PEAVUWorld@34@PEB_WAEAVFOutputDevice@34@@Z@std@@UFCallbackOptions@123@@Z
    ?RegisterULocalPlayerExecPreCallback@Hook@Unreal@RC@@YAXV?$function@$$A6A?AUULocalPlayerExecCallbackReturnValue@Hook@Unreal@RC@@PEAVULocalPlayer@34@PEAVUWorld@34@PEB_WAEAVFOutputDevice@34@@Z@std@@@Z
    ?RegisterULocalPlayerExecPreCallback@Hook@Unreal@RC@@YA_KV?$function@$$A6AXAEAV?$TCallbackIterationData@_N@Hook@Unreal@RC@@PEAVULocalPlayer@34@PEAVUWorld@34@PEB_WAEAVFOutputDevice@34@@Z@std@@UFCallbackOptions@123@@Z
    ?RemoveAllCallbacks@UnrealScriptFunctionData@Unreal@RC@@QEAAXXZ
    ?RemoveAt@?$TStringBase@D@Unreal@RC@@QEAAXHHW4EAllowShrinking@23@@Z
    ?RemoveAt@?$TStringBase@_Q@Unreal@RC@@QEAAXHHW4EAllowShrinking@23@@Z
    ?RemoveAt@?$TStringBase@_W@Unreal@RC@@QEAAXHHW4EAllowShrinking@23@@Z
    ?RemoveCallback@UnrealScriptFunctionData@Unreal@RC@@QEAA_NH@Z
    ?RemoveDelegate@FMulticastDelegateProperty@Unreal@RC@@QEBAXAEBV?$TScriptDelegate@UFWeakObjectPtr@Unreal@RC@@@23@PEAVUObject@23@PEAX@Z
    ?RemoveFromNamesAt@UEnum@Unreal@RC@@QEAAXHHW4EAllowShrinking@23@@Z
    ?RemoveFromNamesAt@UEnum@Unreal@RC@@QEAAXHH_N@Z
    ?RemoveRow@UDataTable@Unreal@RC@@QEAAXVFName@23@@Z
    ?RemoveRowInternal@UDataTable@Unreal@RC@@IEAAXVFName@23@@Z
    ?RemoveSelf@FCallbackIterationDataCommonImpl@Internal@Hook@Unreal@RC@@QEAAXXZ
    ?RemoveUObjectCreateListener@FUObjectArray@Unreal@RC@@SAXPEAVFUObjectCreateListener@23@@Z
    ?RemoveUObjectDeleteListener@FUObjectArray@Unreal@RC@@SAXPEAVFUObjectDeleteListener@23@@Z
    ?Rename@UObject@Unreal@RC@@QEAA_NPEB_WPEAV123@I@Z
    ?Replace@FAnsiString@Unreal@RC@@QEBA?AV123@PEBD0W4Type@ESearchCase@23@@Z
    ?Replace@FString@Unreal@RC@@QEBA?AV123@PEB_W0W4Type@ESearchCase@23@@Z
    ?Replace@FUtf8String@Unreal@RC@@QEBA?AV123@PEB_Q0W4Type@ESearchCase@23@@Z
    ?ReplaceInline@FAnsiString@Unreal@RC@@QEAAHPEBD0W4Type@ESearchCase@23@@Z
    ?ReplaceInline@FString@Unreal@RC@@QEAAHPEB_W0W4Type@ESearchCase@23@@Z
    ?ReplaceInline@FUtf8String@Unreal@RC@@QEAAHPEB_Q0W4Type@ESearchCase@23@@Z
    ?RequiredObjectsForInit@StaticStorage@Hook@Unreal@RC@@2V?$vector@URequiredObject@StaticStorage@Hook@Unreal@RC@@V?$allocator@URequiredObject@StaticStorage@Hook@Unreal@RC@@@std@@@std@@A
    ?Reserve@?$TStringBase@D@Unreal@RC@@QEAAXH@Z
    ?Reserve@?$TStringBase@_Q@Unreal@RC@@QEAAXH@Z
    ?Reserve@?$TStringBase@_W@Unreal@RC@@QEAAXH@Z
    ?Reset@?$TStringBase@D@Unreal@RC@@QEAAXH@Z
    ?Reset@?$TStringBase@_Q@Unreal@RC@@QEAAXH@Z
    ?Reset@?$TStringBase@_W@Unreal@RC@@QEAAXH@Z
    ?Reset@FWeakObjectPtr@Unreal@RC@@AEAAXXZ
    ?ResizeAllocation@ForAnyElementType@?$TSizedHeapAllocator@$0CA@UFMemory@Unreal@RC@@@Unreal@RC@@QEAAXHH_K@Z
    ?ResizeAllocation@ForAnyElementType@?$TSizedHeapAllocator@$0CA@UFMemory@Unreal@RC@@@Unreal@RC@@QEAAXHH_KI@Z
    ?ResizeAllocation@ForAnyElementType@?$TSizedHeapAllocator@$0EA@UFMemory@Unreal@RC@@@Unreal@RC@@QEAAX_J0_K@Z
    ?ResizeAllocation@ForAnyElementType@?$TSizedHeapAllocator@$0EA@UFMemory@Unreal@RC@@@Unreal@RC@@QEAAX_J0_KI@Z
    ?Reverse@FAnsiString@Unreal@RC@@QEBA?AV123@XZ
    ?Reverse@FString@Unreal@RC@@QEBA?AV123@XZ
    ?Reverse@FUtf8String@Unreal@RC@@QEBA?AV123@XZ
    ?ReverseInline@?$TStringBase@D@Unreal@RC@@QEAAXXZ
    ?ReverseInline@?$TStringBase@_Q@Unreal@RC@@QEAAXXZ
    ?ReverseInline@?$TStringBase@_W@Unreal@RC@@QEAAXXZ
    ?Right@FAnsiString@Unreal@RC@@QEBA?AV123@H@Z
    ?Right@FString@Unreal@RC@@QEBA?AV123@H@Z
    ?Right@FUtf8String@Unreal@RC@@QEBA?AV123@H@Z
    ?Rotation@FTransform@Unreal@RC@@QEAAAEAUFQuat@23@XZ
    ?SameType@FProperty@Unreal@RC@@QEBA_NPEBV123@@Z
    ?Scale3D@FTransform@Unreal@RC@@QEAAAEAUFVector@23@XZ
    ?ScanForGUObjectArray@Signatures@Unreal@RC@@YA?AUScanResult@123@AEBUConfig@UnrealInitializer@23@@Z
    ?ScanForGUObjectArrayImpl@Signatures@Unreal@RC@@YA?AUScanResult@123@AEBUConfig@UnrealInitializer@23@@Z
    ?ScanForGameFunctionsAndData@Signatures@Unreal@RC@@YA?AUScanResult@123@AEBUConfig@UnrealInitializer@23@@Z
    ?ScanForGameFunctionsAndDataImpl@Signatures@Unreal@RC@@YA?AUScanResult@123@AEBUConfig@UnrealInitializer@23@@Z
    ?ScanGame@UnrealInitializer@Unreal@RC@@YAXXZ
    ?ScanTargetToString@RC@@YA?AV?$basic_string@DU?$char_traits@D@std@@V?$allocator@D@2@@std@@W4ScanTarget@1@@Z
    ?ScanTargetToString@RC@@YA?AV?$basic_string@DU?$char_traits@D@std@@V?$allocator@D@2@@std@@_K@Z
    ?Self@UAssetRegistryHelpers@Unreal@RC@@2PEAV123@EA
    ?Self@UGameplayStatics@Unreal@RC@@2PEAV123@EA
    ?Self@UKismetSystemLibrary@Unreal@RC@@2PEAV123@EA
    ?SerialNumbersMatch@FWeakObjectPtr@Unreal@RC@@QEBA_NPEAUFUObjectItem@23@@Z
    ?Serialize@FField@Unreal@RC@@QEAAXAEAVFArchive@23@@Z
    ?Serialize@FOutputDevice@Unreal@RC@@QEAAXPEB_WW4Type@ELogVerbosity@23@AEBVFName@23@N@Z
    ?Serialize@FOutputDevice@Unreal@RC@@QEBAXPEB_WW4Type@ELogVerbosity@23@AEBVFName@23@N@Z
    ?Serialize@UObject@Unreal@RC@@QEAAXAEAVFArchive@23@@Z
    ?Serialize@UObject@Unreal@RC@@QEAAXW4FRecord@FStructuredArchive@123@@Z
    ?SerializeBin@UStruct@Unreal@RC@@QEBAXAEAVFArchive@23@PEAX@Z
    ?SerializeExpr@UStruct@Unreal@RC@@QEAA?AW4EExprToken@23@AEAHAEAVFArchive@23@@Z
    ?SerializeItem@FProperty@Unreal@RC@@QEBAXW4FSlot@FStructuredArchive@123@PEAXPEBX@Z
    ?SerializeTaggedProperties@UStruct@Unreal@RC@@QEBAXAEAVFArchive@23@PEAEPEAV123@1PEBVUObject@23@@Z
    ?Set@FFieldClassVariant@Unreal@RC@@QEAAXPEAVFFieldClass@23@@Z
    ?Set@FFieldClassVariant@Unreal@RC@@QEAAXPEAVUClass@23@@Z
    ?Set@FFieldClassVariant@Unreal@RC@@QEAAXPEBVUClass@23@@Z
    ?Set@FFieldVariant@Unreal@RC@@QEAAXPEAVFField@23@@Z
    ?Set@FFieldVariant@Unreal@RC@@QEAAXPEAVUObject@23@@Z
    ?SetActorEnableCollision@AActor@Unreal@RC@@QEAAX_N@Z
    ?SetActorHiddenInGame@AActor@Unreal@RC@@QEAAX_N@Z
    ?SetActorScale3D@AActor@Unreal@RC@@QEAAXUFVector@23@@Z
    ?SetActorTickEnabled@AActor@Unreal@RC@@QEAAX_N@Z
    ?SetActorTickInterval@AActor@Unreal@RC@@QEAAXM@Z
    ?SetAssetClass@FAssetData@Unreal@RC@@QEAAXVFName@23@@Z
    ?SetAssetClassPath@FAssetData@Unreal@RC@@QEAAXAEAUFTopLevelAssetPath@23@@Z
    ?SetAssetName@FAssetData@Unreal@RC@@QEAAXVFName@23@@Z
    ?SetAssetsAreLoading@UAssetRegistry@Unreal@RC@@SAX_N@Z
    ?SetCharArray@FString@Unreal@RC@@QEAAXAEAV?$TArray@_WV?$TSizedDefaultAllocator@$0CA@@Unreal@RC@@@23@@Z
    ?SetChunkIDs@FAssetData@Unreal@RC@@QEAAXXZ
    ?SetClass@FField@Unreal@RC@@QEAAXPEAV123@@Z
    ?SetClass@FField@Unreal@RC@@QEAAXPEAVUClass@23@@Z
    ?SetCurrentCallbackInfo@FCallbackIterationDataCommonImpl@Internal@Hook@Unreal@RC@@QEAAXPEAUFCallbackMetadata@2345@@Z
    ?SetFlags@UObject@Unreal@RC@@QEAAXW4EObjectFlags@23@@Z
    ?SetFlagsInternal@FUObjectItem@Unreal@RC@@AEAAXW4EInternalObjectFlags@23@@Z
    ?SetFlagsTo@UObject@Unreal@RC@@QEAAXW4EObjectFlags@23@@Z
    ?SetFloatingPointPropertyValue@FNumericProperty@Unreal@RC@@QEAAXPEAXN@Z
    ?SetFuncPtr@UFunction@Unreal@RC@@QEAAXP6AXPEAVUObject@23@AEAUFFrame@23@PEAX@Z@Z
    ?SetGCKeep@FUObjectItem@Unreal@RC@@QEAAXXZ
    ?SetIntPropertyValue@FNumericProperty@Unreal@RC@@QEBAXPEAX_J@Z
    ?SetIntPropertyValue@FNumericProperty@Unreal@RC@@QEBAXPEAX_K@Z
    ?SetInterfaceClass@FInterfaceProperty@Unreal@RC@@QEAAXPEAVUClass@23@@Z
    ?SetMaxMemoryUsageDuringAssetLoading@UAssetRegistry@Unreal@RC@@SA@_J@Z
    ?SetMetaClass@FClassProperty@Unreal@RC@@QEAAXPEAVUClass@23@@Z
    ?SetMetaClass@FSoftClassProperty@Unreal@RC@@QEAAXPEAVUClass@23@@Z
    ?SetMulticastDelegate@FMulticastDelegateProperty@Unreal@RC@@QEBAXPEAXV?$TMulticastScriptDelegate@UFWeakObjectPtr@Unreal@RC@@@23@@Z
    ?SetNetPushIdDynamic@UObject@Unreal@RC@@QEAAXH@Z
    ?SetNewChunkIDsUnsafe@FAssetData@Unreal@RC@@QEAAXAEAV?$TArray@HV?$TSizedInlineAllocator@$01$0CA@V?$TSizedDefaultAllocator@$0CA@@Unreal@RC@@@Unreal@RC@@@23@@Z
    ?SetNext@FField@Unreal@RC@@QEAAXPEAV123@@Z
    ?SetNext@FField@Unreal@RC@@QEAAXPEAVUField@23@@Z
    ?SetNumericPropertyValueFromString@FNumericProperty@Unreal@RC@@QEAAXPEAXPEB_W@Z
    ?SetObjectPath@FAssetData@Unreal@RC@@QEAAXVFName@23@@Z
    ?SetObjectPropertyValue@FObjectPropertyBase@Unreal@RC@@QEBAXPEAXPEAVUObject@23@@Z
    ?SetOffset_Internal@FProperty@Unreal@RC@@IEAAXH@Z
    ?SetOldChunkIDsUnsafe@FAssetData@Unreal@RC@@QEAAXAEAV?$TArray@HV?$TSizedDefaultAllocator@$0CA@@Unreal@RC@@@23@@Z
    ?SetOwnerVariant@FField@Unreal@RC@@QEAAXPEAV123@@Z
    ?SetOwnerVariant@FField@Unreal@RC@@QEAAXPEAVUObject@23@@Z
    ?SetPackageFlags@FAssetData@Unreal@RC@@QEAAXI@Z
    ?SetPackageName@FAssetData@Unreal@RC@@QEAAXVFName@23@@Z
    ?SetPackagePath@FAssetData@Unreal@RC@@QEAAXVFName@23@@Z
    ?SetPitch@FRotator@Unreal@RC@@QEAAXN@Z
    ?SetPitch_Internal@FRotator@Unreal@RC@@CAXAEAU123@N@Z
    ?SetPropertyClass@FObjectPropertyBase@Unreal@RC@@QEAAXPEAVUClass@23@@Z
    ?SetPropertyValue@?$TPropertyTypeFundamentals@C@Unreal@RC@@SAXPEAXAEBC@Z
    ?SetPropertyValue@?$TPropertyTypeFundamentals@E@Unreal@RC@@SAXPEAXAEBE@Z
    ?SetPropertyValue@?$TPropertyTypeFundamentals@F@Unreal@RC@@SAXPEAXAEBF@Z
    ?SetPropertyValue@?$TPropertyTypeFundamentals@G@Unreal@RC@@SAXPEAXAEBG@Z
    ?SetPropertyValue@?$TPropertyTypeFundamentals@H@Unreal@RC@@SAXPEAXAEBH@Z
    ?SetPropertyValue@?$TPropertyTypeFundamentals@I@Unreal@RC@@SAXPEAXAEBI@Z
    ?SetPropertyValue@?$TPropertyTypeFundamentals@M@Unreal@RC@@SAXPEAXAEBM@Z
    ?SetPropertyValue@?$TPropertyTypeFundamentals@N@Unreal@RC@@SAXPEAXAEBN@Z
    ?SetPropertyValue@?$TPropertyTypeFundamentals@PEAVUObject@Unreal@RC@@@Unreal@RC@@SAXPEAXAEBQEAVUObject@23@@Z
    ?SetPropertyValue@?$TPropertyTypeFundamentals@UFFieldPath@Unreal@RC@@@Unreal@RC@@SAXPEAXAEBUFFieldPath@23@@Z
    ?SetPropertyValue@?$TPropertyTypeFundamentals@UFLazyObjectPtr@Unreal@RC@@@Unreal@RC@@SAXPEAXAEBUFLazyObjectPtr@23@@Z
    ?SetPropertyValue@?$TPropertyTypeFundamentals@UFSoftObjectPtr@Unreal@RC@@@Unreal@RC@@SAXPEAXAEBUFSoftObjectPtr@23@@Z
    ?SetPropertyValue@?$TPropertyTypeFundamentals@UFSparseDelegate@Unreal@RC@@@Unreal@RC@@SAXPEAXAEBUFSparseDelegate@23@@Z
    ?SetPropertyValue@?$TPropertyTypeFundamentals@UFWeakObjectPtr@Unreal@RC@@@Unreal@RC@@SAXPEAXAEBUFWeakObjectPtr@23@@Z
    ?SetPropertyValue@?$TPropertyTypeFundamentals@V?$TMulticastScriptDelegate@UFWeakObjectPtr@Unreal@RC@@@Unreal@RC@@@Unreal@RC@@SAXPEAXAEBV?$TMulticastScriptDelegate@UFWeakObjectPtr@Unreal@RC@@@23@@Z
    ?SetPropertyValue@?$TPropertyTypeFundamentals@V?$TScriptDelegate@UFWeakObjectPtr@Unreal@RC@@@Unreal@RC@@@Unreal@RC@@SAXPEAXAEBV?$TScriptDelegate@UFWeakObjectPtr@Unreal@RC@@@23@@Z
    ?SetPropertyValue@?$TPropertyTypeFundamentals@VFAnsiString@Unreal@RC@@@Unreal@RC@@SAXPEAXAEBVFAnsiString@23@@Z
    ?SetPropertyValue@?$TPropertyTypeFundamentals@VFName@Unreal@RC@@@Unreal@RC@@SAXPEAXAEBVFName@23@@Z
    ?SetPropertyValue@?$TPropertyTypeFundamentals@VFScriptInterface@Unreal@RC@@@Unreal@RC@@SAXPEAXAEBVFScriptInterface@23@@Z
    ?SetPropertyValue@?$TPropertyTypeFundamentals@VFScriptMap@Unreal@RC@@@Unreal@RC@@SAXPEAXAEBVFScriptMap@23@@Z
    ?SetPropertyValue@?$TPropertyTypeFundamentals@VFScriptSet@Unreal@RC@@@Unreal@RC@@SAXPEAXAEBVFScriptSet@23@@Z
    ?SetPropertyValue@?$TPropertyTypeFundamentals@VFString@Unreal@RC@@@Unreal@RC@@SAXPEAXAEBVFString@23@@Z
    ?SetPropertyValue@?$TPropertyTypeFundamentals@VFText@Unreal@RC@@@Unreal@RC@@SAXPEAXAEBVFText@23@@Z
    ?SetPropertyValue@?$TPropertyTypeFundamentals@VFUtf8String@Unreal@RC@@@Unreal@RC@@SAXPEAXAEBVFUtf8String@23@@Z
    ?SetPropertyValue@?$TPropertyTypeFundamentals@_J@Unreal@RC@@SAXPEAXAEB_J@Z
    ?SetPropertyValue@?$TPropertyTypeFundamentals@_K@Unreal@RC@@SAXPEAXAEB_K@Z
    ?SetPropertyValue@FBoolProperty@Unreal@RC@@QEAAXPEAX_N@Z
    ?SetPropertyValueInContainer@?$TProperty@CVFNumericProperty@Unreal@RC@@@Unreal@RC@@QEAAXPEAXAEBCH@Z
    ?SetPropertyValueInContainer@?$TProperty@EVFNumericProperty@Unreal@RC@@@Unreal@RC@@QEAAXPEAXAEBEH@Z
    ?SetPropertyValueInContainer@?$TProperty@FVFNumericProperty@Unreal@RC@@@Unreal@RC@@QEAAXPEAXAEBFH@Z
    ?SetPropertyValueInContainer@?$TProperty@GVFNumericProperty@Unreal@RC@@@Unreal@RC@@QEAAXPEAXAEBGH@Z
    ?SetPropertyValueInContainer@?$TProperty@HVFNumericProperty@Unreal@RC@@@Unreal@RC@@QEAAXPEAXAEBHH@Z
    ?SetPropertyValueInContainer@?$TProperty@IVFNumericProperty@Unreal@RC@@@Unreal@RC@@QEAAXPEAXAEBIH@Z
    ?SetPropertyValueInContainer@?$TProperty@MVFNumericProperty@Unreal@RC@@@Unreal@RC@@QEAAXPEAXAEBMH@Z
    ?SetPropertyValueInContainer@?$TProperty@NVFNumericProperty@Unreal@RC@@@Unreal@RC@@QEAAXPEAXAEBNH@Z
    ?SetPropertyValueInContainer@?$TProperty@PEAVUObject@Unreal@RC@@VFObjectPropertyBase@23@@Unreal@RC@@QEAAXPEAXAEBQEAVUObject@23@H@Z
    ?SetPropertyValueInContainer@?$TProperty@UFFieldPath@Unreal@RC@@VFProperty@23@@Unreal@RC@@QEAAXPEAXAEBUFFieldPath@23@H@Z
    ?SetPropertyValueInContainer@?$TProperty@UFLazyObjectPtr@Unreal@RC@@VFObjectPropertyBase@23@@Unreal@RC@@QEAAXPEAXAEBUFLazyObjectPtr@23@H@Z
    ?SetPropertyValueInContainer@?$TProperty@UFSoftObjectPtr@Unreal@RC@@VFObjectPropertyBase@23@@Unreal@RC@@QEAAXPEAXAEBUFSoftObjectPtr@23@H@Z
    ?SetPropertyValueInContainer@?$TProperty@UFSparseDelegate@Unreal@RC@@VFMulticastDelegateProperty@23@@Unreal@RC@@QEAAXPEAXAEBUFSparseDelegate@23@H@Z
    ?SetPropertyValueInContainer@?$TProperty@UFWeakObjectPtr@Unreal@RC@@VFObjectPropertyBase@23@@Unreal@RC@@QEAAXPEAXAEBUFWeakObjectPtr@23@H@Z
    ?SetPropertyValueInContainer@?$TProperty@V?$TMulticastScriptDelegate@UFWeakObjectPtr@Unreal@RC@@@Unreal@RC@@VFMulticastDelegateProperty@23@@Unreal@RC@@QEAAXPEAXAEBV?$TMulticastScriptDelegate@UFWeakObjectPtr@Unreal@RC@@@23@H@Z
    ?SetPropertyValueInContainer@?$TProperty@V?$TScriptDelegate@UFWeakObjectPtr@Unreal@RC@@@Unreal@RC@@VFProperty@23@@Unreal@RC@@QEAAXPEAXAEBV?$TScriptDelegate@UFWeakObjectPtr@Unreal@RC@@@23@H@Z
    ?SetPropertyValueInContainer@?$TProperty@VFAnsiString@Unreal@RC@@VFProperty@23@@Unreal@RC@@QEAAXPEAXAEBVFAnsiString@23@H@Z
    ?SetPropertyValueInContainer@?$TProperty@VFName@Unreal@RC@@VFProperty@23@@Unreal@RC@@QEAAXPEAXAEBVFName@23@H@Z
    ?SetPropertyValueInContainer@?$TProperty@VFScriptInterface@Unreal@RC@@VFProperty@23@@Unreal@RC@@QEAAXPEAXAEBVFScriptInterface@23@H@Z
    ?SetPropertyValueInContainer@?$TProperty@VFScriptMap@Unreal@RC@@VFProperty@23@@Unreal@RC@@QEAAXPEAXAEBVFScriptMap@23@H@Z
    ?SetPropertyValueInContainer@?$TProperty@VFScriptSet@Unreal@RC@@VFProperty@23@@Unreal@RC@@QEAAXPEAXAEBVFScriptSet@23@H@Z
    ?SetPropertyValueInContainer@?$TProperty@VFString@Unreal@RC@@VFProperty@23@@Unreal@RC@@QEAAXPEAXAEBVFString@23@H@Z
    ?SetPropertyValueInContainer@?$TProperty@VFText@Unreal@RC@@VFProperty@23@@Unreal@RC@@QEAAXPEAXAEBVFText@23@H@Z
    ?SetPropertyValueInContainer@?$TProperty@VFUtf8String@Unreal@RC@@VFProperty@23@@Unreal@RC@@QEAAXPEAXAEBVFUtf8String@23@H@Z
    ?SetPropertyValueInContainer@?$TProperty@_JVFNumericProperty@Unreal@RC@@@Unreal@RC@@QEAAXPEAXAEB_JH@Z
    ?SetPropertyValueInContainer@?$TProperty@_KVFNumericProperty@Unreal@RC@@@Unreal@RC@@QEAAXPEAXAEB_KH@Z
    ?SetPropertyValueInContainer@FBoolProperty@Unreal@RC@@QEAA@PEAX_NH@Z
    ?SetRoll@FRotator@Unreal@RC@@QEAAXN@Z
    ?SetRoll_Internal@FRotator@Unreal@RC@@CAXAEAU123@N@Z
    ?SetRootSet@FUObjectItem@Unreal@RC@@QEAAXXZ
    ?SetRootSet@UObject@Unreal@RC@@QEAAXXZ
    ?SetShouldLoadAllAssets@UAssetRegistry@Unreal@RC@@SAX_N@Z
    ?SetSignedIntPropertyValue@?$TProperty_Numeric@C@Unreal@RC@@QEAAXPEAX_J@Z
    ?SetSignedIntPropertyValue@?$TProperty_Numeric@E@Unreal@RC@@QEAAXPEAX_J@Z
    ?SetSignedIntPropertyValue@?$TProperty_Numeric@F@Unreal@RC@@QEAAXPEAX_J@Z
    ?SetSignedIntPropertyValue@?$TProperty_Numeric@G@Unreal@RC@@QEAAXPEAX_J@Z
    ?SetSignedIntPropertyValue@?$TProperty_Numeric@H@Unreal@RC@@QEAAXPEAX_J@Z
    ?SetSignedIntPropertyValue@?$TProperty_Numeric@I@Unreal@RC@@QEAAXPEAX_J@Z
    ?SetSignedIntPropertyValue@?$TProperty_Numeric@M@Unreal@RC@@QEAAXPEAX_J@Z
    ?SetSignedIntPropertyValue@?$TProperty_Numeric@N@Unreal@RC@@QEAAXPEAX_J@Z
    ?SetSignedIntPropertyValue@?$TProperty_Numeric@_J@Unreal@RC@@QEAAXPEAX_J@Z
    ?SetSignedIntPropertyValue@?$TProperty_Numeric@_K@Unreal@RC@@QEAAXPEAX_J@Z
    ?SetString@FText@Unreal@RC@@QEAAX$$QEBVFString@23@@Z
    ?SetSuperStruct@UStruct@Unreal@RC@@QEAAXPEAV123@@Z
    ?SetTaggedAssetBundles@FAssetData@Unreal@RC@@QEAAXPEAUFAssetBundleData@23@@Z
    ?SetTagsAndValues@FAssetData@Unreal@RC@@QEAAXPEAX@Z
    ?SetUnsignedIntPropertyValue@?$TProperty_Numeric@C@Unreal@RC@@QEAAXPEAX_K@Z
    ?SetUnsignedIntPropertyValue@?$TProperty_Numeric@E@Unreal@RC@@QEAAXPEAX_K@Z
    ?SetUnsignedIntPropertyValue@?$TProperty_Numeric@F@Unreal@RC@@QEAAXPEAX_K@Z
    ?SetUnsignedIntPropertyValue@?$TProperty_Numeric@G@Unreal@RC@@QEAAXPEAX_K@Z
    ?SetUnsignedIntPropertyValue@?$TProperty_Numeric@H@Unreal@RC@@QEAAXPEAX_K@Z
    ?SetUnsignedIntPropertyValue@?$TProperty_Numeric@I@Unreal@RC@@QEAAXPEAX_K@Z
    ?SetUnsignedIntPropertyValue@?$TProperty_Numeric@M@Unreal@RC@@QEAAXPEAX_K@Z
    ?SetUnsignedIntPropertyValue@?$TProperty_Numeric@N@Unreal@RC@@QEAAXPEAX_K@Z
    ?SetUnsignedIntPropertyValue@?$TProperty_Numeric@_J@Unreal@RC@@QEAAXPEAX_K@Z
    ?SetUnsignedIntPropertyValue@?$TProperty_Numeric@_K@Unreal@RC@@QEAAXPEAX_K@Z
    ?SetValueProperty@FOptionalProperty@Unreal@RC@@QEAAXPEAVFProperty@23@@Z
    ?SetW@FQuat@Unreal@RC@@QEAAXN@Z
    ?SetX@FQuat@Unreal@RC@@QEAAXN@Z
    ?SetY@FQuat@Unreal@RC@@QEAAXN@Z
    ?SetYaw@FRotator@Unreal@RC@@QEAAXN@Z
    ?SetYaw_Internal@FRotator@Unreal@RC@@CAXAEAU123@N@Z
    ?SetZ@FQuat@Unreal@RC@@QEAAXN@Z
    ?SetupGUObjectArrayAddress@FUObjectArray@Unreal@RC@@SAXPEAX@Z
    ?SetupOffset@FProperty@Unreal@RC@@AEAAHXZ
    ?SetupStaticConstructObjectInternalAddress@UObjectGlobals@Unreal@RC@@YAXPEAX@Z
    ?SetupTLSCachesOnCurrentThread@FMalloc@Unreal@RC@@QEAAXXZ
    ?SetupTLSCachesOnCurrentThread@FMemory@Unreal@RC@@SAXXZ
    ?SetupUnrealModules@UnrealInitializer@Unreal@RC@@YAXXZ
    ?ShouldLoadAllAssets@UAssetRegistry@Unreal@RC@@SA_NXZ
    ?Shrink@?$TStringBase@D@Unreal@RC@@QEAAXXZ
    ?Shrink@?$TStringBase@_Q@Unreal@RC@@QEAAXXZ
    ?Shrink@?$TStringBase@_W@Unreal@RC@@QEAAXXZ
    ?ShutdownAfterError@UObject@Unreal@RC@@QEAAXXZ
    ?SpawnActor@UWorld@Unreal@RC@@QEAAPEAVAActor@23@PEAVUClass@23@PEBUFTransform@23@@Z
    ?SpawnActor@UWorld@Unreal@RC@@QEAAPEAVAActor@23@PEAVUClass@23@PEBUFVector@23@PEBUFRotator@23@@Z
    ?Split@FAnsiString@Unreal@RC@@QEBAHPEBDAEAV?$TArray@VFAnsiString@Unreal@RC@@V?$TSizedDefaultAllocator@$0CA@@23@@23@_N@Z
    ?Split@FString@Unreal@RC@@QEBAHPEB_WAEAV?$TArray@VFString@Unreal@RC@@V?$TSizedDefaultAllocator@$0CA@@23@@23@_N@Z
    ?Split@FUtf8String@Unreal@RC@@QEBAHPEB_QAEAV?$TArray@VFUtf8String@Unreal@RC@@V?$TSizedDefaultAllocator@$0CA@@23@@23@_N@Z
    ?StartCallbackGarbageCollector@Hook@Unreal@RC@@YA_NXZ
    ?StartsWith@?$TStringBase@D@Unreal@RC@@QEBA_NAEBV123@W4Type@ESearchCase@23@@Z
    ?StartsWith@?$TStringBase@D@Unreal@RC@@QEBA_NPEBDW4Type@ESearchCase@23@@Z
    ?StartsWith@?$TStringBase@_Q@Unreal@RC@@QEBA_NAEBV123@W4Type@ESearchCase@23@@Z
    ?StartsWith@?$TStringBase@_Q@Unreal@RC@@QEBA_NPEB_QW4Type@ESearchCase@23@@Z
    ?StartsWith@?$TStringBase@_W@Unreal@RC@@QEBA_NAEBV123@W4Type@ESearchCase@23@@Z
    ?StartsWith@?$TStringBase@_W@Unreal@RC@@QEBA_NPEB_WW4Type@ESearchCase@23@@Z
    ?StaticClass@AActor@Unreal@RC@@SAPEAVUClass@23@XZ
    ?StaticClass@AGameMode@Unreal@RC@@SAPEAVUClass@23@XZ
    ?StaticClass@AGameModeBase@Unreal@RC@@SAPEAVUClass@23@XZ
    ?StaticClass@FAnsiStrProperty@Unreal@RC@@SA?AVFFieldClassVariant@23@XZ
    ?StaticClass@FArrayProperty@Unreal@RC@@SA?AVFFieldClassVariant@23@XZ
    ?StaticClass@FAssetClassProperty@Unreal@RC@@SA?AVFFieldClassVariant@23@XZ
    ?StaticClass@FAssetData@Unreal@RC@@SAPEAVUClass@23@XZ
    ?StaticClass@FAssetObjectProperty@Unreal@RC@@SA?AVFFieldClassVariant@23@XZ
    ?StaticClass@FBoolProperty@Unreal@RC@@SA?AVFFieldClassVariant@23@XZ
    ?StaticClass@FByteProperty@Unreal@RC@@SA?AVFFieldClassVariant@23@XZ
    ?StaticClass@FClassProperty@Unreal@RC@@SA?AVFFieldClassVariant@23@XZ
    ?StaticClass@FClassPtrProperty@Unreal@RC@@SA?AVFFieldClassVariant@23@XZ
    ?StaticClass@FDelegateProperty@Unreal@RC@@SA?AVFFieldClassVariant@23@XZ
    ?StaticClass@FDoubleProperty@Unreal@RC@@SA?AVFFieldClassVariant@23@XZ
    ?StaticClass@FEnumProperty@Unreal@RC@@SA?AVFFieldClassVariant@23@XZ
    ?StaticClass@FField@Unreal@RC@@SA?AVFFieldClassVariant@23@XZ
    ?StaticClass@FFieldPathProperty@Unreal@RC@@SA?AVFFieldClassVariant@23@XZ
    ?StaticClass@FFloatProperty@Unreal@RC@@SA?AVFFieldClassVariant@23@XZ
    ?StaticClass@FInt16Property@Unreal@RC@@SA?AVFFieldClassVariant@23@XZ
    ?StaticClass@FInt64Property@Unreal@RC@@SA?AVFFieldClassVariant@23@XZ
    ?StaticClass@FInt8Property@Unreal@RC@@SA?AVFFieldClassVariant@23@XZ
    ?StaticClass@FIntProperty@Unreal@RC@@SA?AVFFieldClassVariant@23@XZ
    ?StaticClass@FInterfaceProperty@Unreal@RC@@SA?AVFFieldClassVariant@23@XZ
    ?StaticClass@FLazyObjectProperty@Unreal@RC@@SA?AVFFieldClassVariant@23@XZ
    ?StaticClass@FMapProperty@Unreal@RC@@SA?AVFFieldClassVariant@23@XZ
    ?StaticClass@FMulticastDelegateProperty@Unreal@RC@@SA?AVFFieldClassVariant@23@XZ
    ?StaticClass@FMulticastInlineDelegateProperty@Unreal@RC@@SA?AVFFieldClassVariant@23@XZ
    ?StaticClass@FMulticastSparseDelegateProperty@Unreal@RC@@SA?AVFFieldClassVariant@23@XZ
    ?StaticClass@FNameProperty@Unreal@RC@@SA?AVFFieldClassVariant@23@XZ
    ?StaticClass@FNumericProperty@Unreal@RC@@SA?AVFFieldClassVariant@23@XZ
    ?StaticClass@FObjectProperty@Unreal@RC@@SA?AVFFieldClassVariant@23@XZ
    ?StaticClass@FObjectPropertyBase@Unreal@RC@@SA?AVFFieldClassVariant@23@XZ
    ?StaticClass@FObjectPtrProperty@Unreal@RC@@SA?AVFFieldClassVariant@23@XZ
    ?StaticClass@FOptionalProperty@Unreal@RC@@SA?AVFFieldClassVariant@23@XZ
    ?StaticClass@FProperty@Unreal@RC@@SA?AVFFieldClassVariant@23@XZ
    ?StaticClass@FSetProperty@Unreal@RC@@SA?AVFFieldClassVariant@23@XZ
    ?StaticClass@FSoftClassProperty@Unreal@RC@@SA?AVFFieldClassVariant@23@XZ
    ?StaticClass@FSoftObjectProperty@Unreal@RC@@SA?AVFFieldClassVariant@23@XZ
    ?StaticClass@FStrProperty@Unreal@RC@@SA?AVFFieldClassVariant@23@XZ
    ?StaticClass@FStructProperty@Unreal@RC@@SA?AVFFieldClassVariant@23@XZ
    ?StaticClass@FTextProperty@Unreal@RC@@SA?AVFFieldClassVariant@23@XZ
    ?StaticClass@FUInt16Property@Unreal@RC@@SA?AVFFieldClassVariant@23@XZ
    ?StaticClass@FUInt32Property@Unreal@RC@@SA?AVFFieldClassVariant@23@XZ
    ?StaticClass@FUInt64Property@Unreal@RC@@SA?AVFFieldClassVariant@23@XZ
    ?StaticClass@FUtf8StrProperty@Unreal@RC@@SA?AVFFieldClassVariant@23@XZ
    ?StaticClass@FWeakObjectProperty@Unreal@RC@@SA?AVFFieldClassVariant@23@XZ
    ?StaticClass@FWorldContext@Unreal@RC@@SAPEAVUClass@23@XZ
    ?StaticClass@UActorComponent@Unreal@RC@@SAPEAVUClass@23@XZ
    ?StaticClass@UAnimBlueprintGeneratedClass@Unreal@RC@@SAPEAVUClass@23@XZ
    ?StaticClass@UBlueprintGeneratedClass@Unreal@RC@@SAPEAVUClass@23@XZ
    ?StaticClass@UCanvasPanel@Unreal@RC@@SAPEAVUClass@23@XZ
    ?StaticClass@UClass@Unreal@RC@@SAPEAV123@XZ
    ?StaticClass@UDataTable@Unreal@RC@@SAPEAVUClass@23@XZ
    ?StaticClass@UDelegateFunction@Unreal@RC@@SAPEAVUClass@23@XZ
    ?StaticClass@UEngine@Unreal@RC@@SAPEAVUClass@23@XZ
    ?StaticClass@UEnum@Unreal@RC@@SAPEAVUClass@23@XZ
    ?StaticClass@UField@Unreal@RC@@SAPEAVUClass@23@XZ
    ?StaticClass@UFunction@Unreal@RC@@SAPEAVUClass@23@XZ
    ?StaticClass@UGameViewportClient@Unreal@RC@@SAPEAVUClass@23@XZ
    ?StaticClass@UInterface@Unreal@RC@@SAPEAVUClass@23@XZ
    ?StaticClass@ULocalPlayer@Unreal@RC@@SAPEAVUClass@23@XZ
    ?StaticClass@UObject@Unreal@RC@@SAPEAVUClass@23@XZ
    ?StaticClass@UPackage@Unreal@RC@@SAPEAVUClass@23@XZ
    ?StaticClass@UPlayer@Unreal@RC@@SAPEAVUClass@23@XZ
    ?StaticClass@USceneComponent@Unreal@RC@@SAPEAVUClass@23@XZ
    ?StaticClass@UScriptStruct@Unreal@RC@@SAPEAVUClass@23@XZ
    ?StaticClass@USparseDelegateFunction@Unreal@RC@@SAPEAVUClass@23@XZ
    ?StaticClass@UStruct@Unreal@RC@@SAPEAVUClass@23@XZ
    ?StaticClass@UUserDefinedEnum@Unreal@RC@@SAPEAVUClass@23@XZ
    ?StaticClass@UWidgetBlueprintGeneratedClass@Unreal@RC@@SAPEAVUClass@23@XZ
    ?StaticClass@UWorld@Unreal@RC@@SAPEAVUClass@23@XZ
    ?StaticClassCastFlags@AActor@Unreal@RC@@SA_KXZ
    ?StaticClassCastFlags@FArrayProperty@Unreal@RC@@SA_KXZ
    ?StaticClassCastFlags@FBoolProperty@Unreal@RC@@SA_KXZ
    ?StaticClassCastFlags@FByteProperty@Unreal@RC@@SA_KXZ
    ?StaticClassCastFlags@FClassProperty@Unreal@RC@@SA_KXZ
    ?StaticClassCastFlags@FClassPtrProperty@Unreal@RC@@SA_KXZ
    ?StaticClassCastFlags@FDelegateProperty@Unreal@RC@@SA_KXZ
    ?StaticClassCastFlags@FDoubleProperty@Unreal@RC@@SA_KXZ
    ?StaticClassCastFlags@FField@Unreal@RC@@CA_KXZ
    ?StaticClassCastFlags@FFloatProperty@Unreal@RC@@SA_KXZ
    ?StaticClassCastFlags@FInt16Property@Unreal@RC@@SA_KXZ
    ?StaticClassCastFlags@FInt64Property@Unreal@RC@@SA_KXZ
    ?StaticClassCastFlags@FInt8Property@Unreal@RC@@SA_KXZ
    ?StaticClassCastFlags@FIntProperty@Unreal@RC@@SA_KXZ
    ?StaticClassCastFlags@FInterfaceProperty@Unreal@RC@@SA_KXZ
    ?StaticClassCastFlags@FLazyObjectProperty@Unreal@RC@@SA_KXZ
    ?StaticClassCastFlags@FMapProperty@Unreal@RC@@SA_KXZ
    ?StaticClassCastFlags@FMulticastDelegateProperty@Unreal@RC@@SA_KXZ
    ?StaticClassCastFlags@FMulticastInlineDelegateProperty@Unreal@RC@@SA_KXZ
    ?StaticClassCastFlags@FMulticastSparseDelegateProperty@Unreal@RC@@SA_KXZ
    ?StaticClassCastFlags@FNameProperty@Unreal@RC@@SA_KXZ
    ?StaticClassCastFlags@FNumericProperty@Unreal@RC@@SA_KXZ
    ?StaticClassCastFlags@FObjectProperty@Unreal@RC@@SA_KXZ
    ?StaticClassCastFlags@FObjectPropertyBase@Unreal@RC@@SA_KXZ
    ?StaticClassCastFlags@FObjectPtrProperty@Unreal@RC@@SA_KXZ
    ?StaticClassCastFlags@FProperty@Unreal@RC@@SA_KXZ
    ?StaticClassCastFlags@FSetProperty@Unreal@RC@@SA_KXZ
    ?StaticClassCastFlags@FSoftClassProperty@Unreal@RC@@SA_KXZ
    ?StaticClassCastFlags@FSoftObjectProperty@Unreal@RC@@SA_KXZ
    ?StaticClassCastFlags@FStructProperty@Unreal@RC@@SA_KXZ
    ?StaticClassCastFlags@FUInt16Property@Unreal@RC@@SA_KXZ
    ?StaticClassCastFlags@FUInt32Property@Unreal@RC@@SA_KXZ
    ?StaticClassCastFlags@FUInt64Property@Unreal@RC@@SA_KXZ
    ?StaticClassCastFlags@FWeakObjectProperty@Unreal@RC@@SA_KXZ
    ?StaticClassCastFlags@UClass@Unreal@RC@@SA_KXZ
    ?StaticClassCastFlags@UDelegateFunction@Unreal@RC@@SA_KXZ
    ?StaticClassCastFlags@UEnum@Unreal@RC@@SA_KXZ
    ?StaticClassCastFlags@UField@Unreal@RC@@KA_KXZ
    ?StaticClassCastFlags@UFunction@Unreal@RC@@SA_KXZ
    ?StaticClassCastFlags@UPackage@Unreal@RC@@SA_KXZ
    ?StaticClassCastFlags@USceneComponent@Unreal@RC@@SA_KXZ
    ?StaticClassCastFlags@UScriptStruct@Unreal@RC@@SA_KXZ
    ?StaticClassCastFlags@USparseDelegateFunction@Unreal@RC@@SA_KXZ
    ?StaticClassCastFlags@UStruct@Unreal@RC@@SA_KXZ
    ?StaticClassCastFlagsPrivate@AActor@Unreal@RC@@SA_KXZ
    ?StaticClassCastFlagsPrivate@FArrayProperty@Unreal@RC@@SA_KXZ
    ?StaticClassCastFlagsPrivate@FBoolProperty@Unreal@RC@@SA_KXZ
    ?StaticClassCastFlagsPrivate@FByteProperty@Unreal@RC@@SA_KXZ
    ?StaticClassCastFlagsPrivate@FClassProperty@Unreal@RC@@SA_KXZ
    ?StaticClassCastFlagsPrivate@FClassPtrProperty@Unreal@RC@@SA_KXZ
    ?StaticClassCastFlagsPrivate@FDelegateProperty@Unreal@RC@@SA_KXZ
    ?StaticClassCastFlagsPrivate@FDoubleProperty@Unreal@RC@@SA_KXZ
    ?StaticClassCastFlagsPrivate@FField@Unreal@RC@@CA_KXZ
    ?StaticClassCastFlagsPrivate@FFloatProperty@Unreal@RC@@SA_KXZ
    ?StaticClassCastFlagsPrivate@FInt16Property@Unreal@RC@@SA_KXZ
    ?StaticClassCastFlagsPrivate@FInt64Property@Unreal@RC@@SA_KXZ
    ?StaticClassCastFlagsPrivate@FInt8Property@Unreal@RC@@SA_KXZ
    ?StaticClassCastFlagsPrivate@FIntProperty@Unreal@RC@@SA_KXZ
    ?StaticClassCastFlagsPrivate@FInterfaceProperty@Unreal@RC@@SA_KXZ
    ?StaticClassCastFlagsPrivate@FLazyObjectProperty@Unreal@RC@@SA_KXZ
    ?StaticClassCastFlagsPrivate@FMapProperty@Unreal@RC@@SA_KXZ
    ?StaticClassCastFlagsPrivate@FMulticastDelegateProperty@Unreal@RC@@SA_KXZ
    ?StaticClassCastFlagsPrivate@FMulticastInlineDelegateProperty@Unreal@RC@@SA_KXZ
    ?StaticClassCastFlagsPrivate@FMulticastSparseDelegateProperty@Unreal@RC@@SA_KXZ
    ?StaticClassCastFlagsPrivate@FNameProperty@Unreal@RC@@SA_KXZ
    ?StaticClassCastFlagsPrivate@FNumericProperty@Unreal@RC@@SA_KXZ
    ?StaticClassCastFlagsPrivate@FObjectProperty@Unreal@RC@@SA_KXZ
    ?StaticClassCastFlagsPrivate@FObjectPropertyBase@Unreal@RC@@SA_KXZ
    ?StaticClassCastFlagsPrivate@FObjectPtrProperty@Unreal@RC@@SA_KXZ
    ?StaticClassCastFlagsPrivate@FProperty@Unreal@RC@@SA_KXZ
    ?StaticClassCastFlagsPrivate@FSetProperty@Unreal@RC@@SA_KXZ
    ?StaticClassCastFlagsPrivate@FSoftClassProperty@Unreal@RC@@SA_KXZ
    ?StaticClassCastFlagsPrivate@FSoftObjectProperty@Unreal@RC@@SA_KXZ
    ?StaticClassCastFlagsPrivate@FStructProperty@Unreal@RC@@SA_KXZ
    ?StaticClassCastFlagsPrivate@FUInt16Property@Unreal@RC@@SA_KXZ
    ?StaticClassCastFlagsPrivate@FUInt32Property@Unreal@RC@@SA_KXZ
    ?StaticClassCastFlagsPrivate@FUInt64Property@Unreal@RC@@SA_KXZ
    ?StaticClassCastFlagsPrivate@FWeakObjectProperty@Unreal@RC@@SA_KXZ
    ?StaticClassCastFlagsPrivate@UClass@Unreal@RC@@SA_KXZ
    ?StaticClassCastFlagsPrivate@UDelegateFunction@Unreal@RC@@SA_KXZ
    ?StaticClassCastFlagsPrivate@UEnum@Unreal@RC@@SA_KXZ
    ?StaticClassCastFlagsPrivate@UField@Unreal@RC@@KA_KXZ
    ?StaticClassCastFlagsPrivate@UFunction@Unreal@RC@@SA_KXZ
    ?StaticClassCastFlagsPrivate@UPackage@Unreal@RC@@SA_KXZ
    ?StaticClassCastFlagsPrivate@USceneComponent@Unreal@RC@@SA_KXZ
    ?StaticClassCastFlagsPrivate@UScriptStruct@Unreal@RC@@SA_KXZ
    ?StaticClassCastFlagsPrivate@USparseDelegateFunction@Unreal@RC@@SA_KXZ
    ?StaticClassCastFlagsPrivate@UStruct@Unreal@RC@@SA_KXZ
    ?StaticClassName@AActor@Unreal@RC@@CAPEB_WXZ
    ?StaticClassName@AGameMode@Unreal@RC@@CAPEB_WXZ
    ?StaticClassName@AGameModeBase@Unreal@RC@@CAPEB_WXZ
    ?StaticClassName@FAnsiStrProperty@Unreal@RC@@CAPEB_WXZ
    ?StaticClassName@FArrayProperty@Unreal@RC@@CAPEB_WXZ
    ?StaticClassName@FAssetClassProperty@Unreal@RC@@CAPEB_WXZ
    ?StaticClassName@FAssetData@Unreal@RC@@CAPEB_WXZ
    ?StaticClassName@FAssetObjectProperty@Unreal@RC@@CAPEB_WXZ
    ?StaticClassName@FBoolProperty@Unreal@RC@@CAPEB_WXZ
    ?StaticClassName@FByteProperty@Unreal@RC@@CAPEB_WXZ
    ?StaticClassName@FClassProperty@Unreal@RC@@CAPEB_WXZ
    ?StaticClassName@FClassPtrProperty@Unreal@RC@@CAPEB_WXZ
    ?StaticClassName@FDelegateProperty@Unreal@RC@@CAPEB_WXZ
    ?StaticClassName@FDoubleProperty@Unreal@RC@@CAPEB_WXZ
    ?StaticClassName@FEnumProperty@Unreal@RC@@CAPEB_WXZ
    ?StaticClassName@FField@Unreal@RC@@CAPEB_WXZ
    ?StaticClassName@FFieldPathProperty@Unreal@RC@@CAPEB_WXZ
    ?StaticClassName@FFloatProperty@Unreal@RC@@CAPEB_WXZ
    ?StaticClassName@FInt16Property@Unreal@RC@@CAPEB_WXZ
    ?StaticClassName@FInt64Property@Unreal@RC@@CAPEB_WXZ
    ?StaticClassName@FInt8Property@Unreal@RC@@CAPEB_WXZ
    ?StaticClassName@FIntProperty@Unreal@RC@@CAPEB_WXZ
    ?StaticClassName@FInterfaceProperty@Unreal@RC@@CAPEB_WXZ
    ?StaticClassName@FLazyObjectProperty@Unreal@RC@@CAPEB_WXZ
    ?StaticClassName@FMapProperty@Unreal@RC@@CAPEB_WXZ
    ?StaticClassName@FMulticastDelegateProperty@Unreal@RC@@CAPEB_WXZ
    ?StaticClassName@FMulticastInlineDelegateProperty@Unreal@RC@@CAPEB_WXZ
    ?StaticClassName@FMulticastSparseDelegateProperty@Unreal@RC@@CAPEB_WXZ
    ?StaticClassName@FNameProperty@Unreal@RC@@CAPEB_WXZ
    ?StaticClassName@FNumericProperty@Unreal@RC@@CAPEB_WXZ
    ?StaticClassName@FObjectProperty@Unreal@RC@@CAPEB_WXZ
    ?StaticClassName@FObjectPropertyBase@Unreal@RC@@CAPEB_WXZ
    ?StaticClassName@FObjectPtrProperty@Unreal@RC@@CAPEB_WXZ
    ?StaticClassName@FOptionalProperty@Unreal@RC@@CAPEB_WXZ
    ?StaticClassName@FProperty@Unreal@RC@@CAPEB_WXZ
    ?StaticClassName@FSetProperty@Unreal@RC@@CAPEB_WXZ
    ?StaticClassName@FSoftClassProperty@Unreal@RC@@CAPEB_WXZ
    ?StaticClassName@FSoftObjectProperty@Unreal@RC@@CAPEB_WXZ
    ?StaticClassName@FStrProperty@Unreal@RC@@CAPEB_WXZ
    ?StaticClassName@FStructProperty@Unreal@RC@@CAPEB_WXZ
    ?StaticClassName@FTextProperty@Unreal@RC@@CAPEB_WXZ
    ?StaticClassName@FUInt16Property@Unreal@RC@@CAPEB_WXZ
    ?StaticClassName@FUInt32Property@Unreal@RC@@CAPEB_WXZ
    ?StaticClassName@FUInt64Property@Unreal@RC@@CAPEB_WXZ
    ?StaticClassName@FUtf8StrProperty@Unreal@RC@@CAPEB_WXZ
    ?StaticClassName@FWeakObjectProperty@Unreal@RC@@CAPEB_WXZ
    ?StaticClassName@FWorldContext@Unreal@RC@@CAPEB_WXZ
    ?StaticClassName@UActorComponent@Unreal@RC@@CAPEB_WXZ
    ?StaticClassName@UAnimBlueprintGeneratedClass@Unreal@RC@@CAPEB_WXZ
    ?StaticClassName@UBlueprintGeneratedClass@Unreal@RC@@CAPEB_WXZ
    ?StaticClassName@UCanvasPanel@Unreal@RC@@CAPEB_WXZ
    ?StaticClassName@UClass@Unreal@RC@@CAPEB_WXZ
    ?StaticClassName@UDataTable@Unreal@RC@@CAPEB_WXZ
    ?StaticClassName@UDelegateFunction@Unreal@RC@@CAPEB_WXZ
    ?StaticClassName@UEngine@Unreal@RC@@CAPEB_WXZ
    ?StaticClassName@UEnum@Unreal@RC@@CAPEB_WXZ
    ?StaticClassName@UField@Unreal@RC@@CAPEB_WXZ
    ?StaticClassName@UFunction@Unreal@RC@@CAPEB_WXZ
    ?StaticClassName@UGameViewportClient@Unreal@RC@@CAPEB_WXZ
    ?StaticClassName@UInterface@Unreal@RC@@CAPEB_WXZ
    ?StaticClassName@ULocalPlayer@Unreal@RC@@CAPEB_WXZ
    ?StaticClassName@UObject@Unreal@RC@@CAPEB_WXZ
    ?StaticClassName@UPackage@Unreal@RC@@CAPEB_WXZ
    ?StaticClassName@UPlayer@Unreal@RC@@CAPEB_WXZ
    ?StaticClassName@USceneComponent@Unreal@RC@@CAPEB_WXZ
    ?StaticClassName@UScriptStruct@Unreal@RC@@CAPEB_WXZ
    ?StaticClassName@USparseDelegateFunction@Unreal@RC@@CAPEB_WXZ
    ?StaticClassName@UStruct@Unreal@RC@@CAPEB_WXZ
    ?StaticClassName@UUserDefinedEnum@Unreal@RC@@CAPEB_WXZ
    ?StaticClassName@UWidgetBlueprintGeneratedClass@Unreal@RC@@CAPEB_WXZ
    ?StaticClassName@UWorld@Unreal@RC@@CAPEB_WXZ
    ?StaticClassPtr@AActor@Unreal@RC@@CAPEAPEAVUClass@23@XZ
    ?StaticClassPtr@AGameMode@Unreal@RC@@CAPEAPEAVUClass@23@XZ
    ?StaticClassPtr@AGameModeBase@Unreal@RC@@CAPEAPEAVUClass@23@XZ
    ?StaticClassPtr@FAnsiStrProperty@Unreal@RC@@CAPEAVFFieldClassVariant@23@XZ
    ?StaticClassPtr@FArrayProperty@Unreal@RC@@CAPEAVFFieldClassVariant@23@XZ
    ?StaticClassPtr@FAssetClassProperty@Unreal@RC@@CAPEAVFFieldClassVariant@23@XZ
    ?StaticClassPtr@FAssetData@Unreal@RC@@CAPEAPEAVUClass@23@XZ
    ?StaticClassPtr@FAssetObjectProperty@Unreal@RC@@CAPEAVFFieldClassVariant@23@XZ
    ?StaticClassPtr@FBoolProperty@Unreal@RC@@CAPEAVFFieldClassVariant@23@XZ
    ?StaticClassPtr@FByteProperty@Unreal@RC@@CAPEAVFFieldClassVariant@23@XZ
    ?StaticClassPtr@FClassProperty@Unreal@RC@@CAPEAVFFieldClassVariant@23@XZ
    ?StaticClassPtr@FClassPtrProperty@Unreal@RC@@CAPEAVFFieldClassVariant@23@XZ
    ?StaticClassPtr@FDelegateProperty@Unreal@RC@@CAPEAVFFieldClassVariant@23@XZ
    ?StaticClassPtr@FDoubleProperty@Unreal@RC@@CAPEAVFFieldClassVariant@23@XZ
    ?StaticClassPtr@FEnumProperty@Unreal@RC@@CAPEAVFFieldClassVariant@23@XZ
    ?StaticClassPtr@FField@Unreal@RC@@CAPEAVFFieldClassVariant@23@XZ
    ?StaticClassPtr@FFieldPathProperty@Unreal@RC@@CAPEAVFFieldClassVariant@23@XZ
    ?StaticClassPtr@FFloatProperty@Unreal@RC@@CAPEAVFFieldClassVariant@23@XZ
    ?StaticClassPtr@FInt16Property@Unreal@RC@@CAPEAVFFieldClassVariant@23@XZ
    ?StaticClassPtr@FInt64Property@Unreal@RC@@CAPEAVFFieldClassVariant@23@XZ
    ?StaticClassPtr@FInt8Property@Unreal@RC@@CAPEAVFFieldClassVariant@23@XZ
    ?StaticClassPtr@FIntProperty@Unreal@RC@@CAPEAVFFieldClassVariant@23@XZ
    ?StaticClassPtr@FInterfaceProperty@Unreal@RC@@CAPEAVFFieldClassVariant@23@XZ
    ?StaticClassPtr@FLazyObjectProperty@Unreal@RC@@CAPEAVFFieldClassVariant@23@XZ
    ?StaticClassPtr@FMapProperty@Unreal@RC@@CAPEAVFFieldClassVariant@23@XZ
    ?StaticClassPtr@FMulticastDelegateProperty@Unreal@RC@@CAPEAVFFieldClassVariant@23@XZ
    ?StaticClassPtr@FMulticastInlineDelegateProperty@Unreal@RC@@CAPEAVFFieldClassVariant@23@XZ
    ?StaticClassPtr@FMulticastSparseDelegateProperty@Unreal@RC@@CAPEAVFFieldClassVariant@23@XZ
    ?StaticClassPtr@FNameProperty@Unreal@RC@@CAPEAVFFieldClassVariant@23@XZ
    ?StaticClassPtr@FNumericProperty@Unreal@RC@@CAPEAVFFieldClassVariant@23@XZ
    ?StaticClassPtr@FObjectProperty@Unreal@RC@@CAPEAVFFieldClassVariant@23@XZ
    ?StaticClassPtr@FObjectPropertyBase@Unreal@RC@@CAPEAVFFieldClassVariant@23@XZ
    ?StaticClassPtr@FObjectPtrProperty@Unreal@RC@@CAPEAVFFieldClassVariant@23@XZ
    ?StaticClassPtr@FOptionalProperty@Unreal@RC@@CAPEAVFFieldClassVariant@23@XZ
    ?StaticClassPtr@FProperty@Unreal@RC@@CAPEAVFFieldClassVariant@23@XZ
    ?StaticClassPtr@FSetProperty@Unreal@RC@@CAPEAVFFieldClassVariant@23@XZ
    ?StaticClassPtr@FSoftClassProperty@Unreal@RC@@CAPEAVFFieldClassVariant@23@XZ
    ?StaticClassPtr@FSoftObjectProperty@Unreal@RC@@CAPEAVFFieldClassVariant@23@XZ
    ?StaticClassPtr@FStrProperty@Unreal@RC@@CAPEAVFFieldClassVariant@23@XZ
    ?StaticClassPtr@FStructProperty@Unreal@RC@@CAPEAVFFieldClassVariant@23@XZ
    ?StaticClassPtr@FTextProperty@Unreal@RC@@CAPEAVFFieldClassVariant@23@XZ
    ?StaticClassPtr@FUInt16Property@Unreal@RC@@CAPEAVFFieldClassVariant@23@XZ
    ?StaticClassPtr@FUInt32Property@Unreal@RC@@CAPEAVFFieldClassVariant@23@XZ
    ?StaticClassPtr@FUInt64Property@Unreal@RC@@CAPEAVFFieldClassVariant@23@XZ
    ?StaticClassPtr@FUtf8StrProperty@Unreal@RC@@CAPEAVFFieldClassVariant@23@XZ
    ?StaticClassPtr@FWeakObjectProperty@Unreal@RC@@CAPEAVFFieldClassVariant@23@XZ
    ?StaticClassPtr@FWorldContext@Unreal@RC@@CAPEAPEAVUClass@23@XZ
    ?StaticClassPtr@UActorComponent@Unreal@RC@@CAPEAPEAVUClass@23@XZ
    ?StaticClassPtr@UAnimBlueprintGeneratedClass@Unreal@RC@@CAPEAPEAVUClass@23@XZ
    ?StaticClassPtr@UBlueprintGeneratedClass@Unreal@RC@@CAPEAPEAVUClass@23@XZ
    ?StaticClassPtr@UCanvasPanel@Unreal@RC@@CAPEAPEAVUClass@23@XZ
    ?StaticClassPtr@UClass@Unreal@RC@@CAPEAPEAV123@XZ
    ?StaticClassPtr@UDataTable@Unreal@RC@@CAPEAPEAVUClass@23@XZ
    ?StaticClassPtr@UDelegateFunction@Unreal@RC@@CAPEAPEAVUClass@23@XZ
    ?StaticClassPtr@UEngine@Unreal@RC@@CAPEAPEAVUClass@23@XZ
    ?StaticClassPtr@UEnum@Unreal@RC@@CAPEAPEAVUClass@23@XZ
    ?StaticClassPtr@UField@Unreal@RC@@CAPEAPEAVUClass@23@XZ
    ?StaticClassPtr@UFunction@Unreal@RC@@CAPEAPEAVUClass@23@XZ
    ?StaticClassPtr@UGameViewportClient@Unreal@RC@@CAPEAPEAVUClass@23@XZ
    ?StaticClassPtr@UInterface@Unreal@RC@@CAPEAPEAVUClass@23@XZ
    ?StaticClassPtr@ULocalPlayer@Unreal@RC@@CAPEAPEAVUClass@23@XZ
    ?StaticClassPtr@UObject@Unreal@RC@@CAPEAPEAVUClass@23@XZ
    ?StaticClassPtr@UPackage@Unreal@RC@@CAPEAPEAVUClass@23@XZ
    ?StaticClassPtr@UPlayer@Unreal@RC@@CAPEAPEAVUClass@23@XZ
    ?StaticClassPtr@USceneComponent@Unreal@RC@@CAPEAPEAVUClass@23@XZ
    ?StaticClassPtr@UScriptStruct@Unreal@RC@@CAPEAPEAVUClass@23@XZ
    ?StaticClassPtr@USparseDelegateFunction@Unreal@RC@@CAPEAPEAVUClass@23@XZ
    ?StaticClassPtr@UStruct@Unreal@RC@@CAPEAPEAVUClass@23@XZ
    ?StaticClassPtr@UUserDefinedEnum@Unreal@RC@@CAPEAPEAVUClass@23@XZ
    ?StaticClassPtr@UWidgetBlueprintGeneratedClass@Unreal@RC@@CAPEAPEAVUClass@23@XZ
    ?StaticClassPtr@UWorld@Unreal@RC@@CAPEAPEAVUClass@23@XZ
    ?StaticClassStorage@AActor@Unreal@RC@@0PEAVUClass@23@EA
    ?StaticClassStorage@AGameMode@Unreal@RC@@0PEAVUClass@23@EA
    ?StaticClassStorage@AGameModeBase@Unreal@RC@@0PEAVUClass@23@EA
    ?StaticClassStorage@FAnsiStrProperty@Unreal@RC@@0VFFieldClassVariant@23@A
    ?StaticClassStorage@FArrayProperty@Unreal@RC@@0VFFieldClassVariant@23@A
    ?StaticClassStorage@FAssetClassProperty@Unreal@RC@@0VFFieldClassVariant@23@A
    ?StaticClassStorage@FAssetData@Unreal@RC@@0PEAVUClass@23@EA
    ?StaticClassStorage@FAssetObjectProperty@Unreal@RC@@0VFFieldClassVariant@23@A
    ?StaticClassStorage@FBoolProperty@Unreal@RC@@0VFFieldClassVariant@23@A
    ?StaticClassStorage@FByteProperty@Unreal@RC@@0VFFieldClassVariant@23@A
    ?StaticClassStorage@FClassProperty@Unreal@RC@@0VFFieldClassVariant@23@A
    ?StaticClassStorage@FClassPtrProperty@Unreal@RC@@0VFFieldClassVariant@23@A
    ?StaticClassStorage@FDelegateProperty@Unreal@RC@@0VFFieldClassVariant@23@A
    ?StaticClassStorage@FDoubleProperty@Unreal@RC@@0VFFieldClassVariant@23@A
    ?StaticClassStorage@FEnumProperty@Unreal@RC@@0VFFieldClassVariant@23@A
    ?StaticClassStorage@FField@Unreal@RC@@0VFFieldClassVariant@23@A
    ?StaticClassStorage@FFieldPathProperty@Unreal@RC@@0VFFieldClassVariant@23@A
    ?StaticClassStorage@FFloatProperty@Unreal@RC@@0VFFieldClassVariant@23@A
    ?StaticClassStorage@FInt16Property@Unreal@RC@@0VFFieldClassVariant@23@A
    ?StaticClassStorage@FInt64Property@Unreal@RC@@0VFFieldClassVariant@23@A
    ?StaticClassStorage@FInt8Property@Unreal@RC@@0VFFieldClassVariant@23@A
    ?StaticClassStorage@FIntProperty@Unreal@RC@@0VFFieldClassVariant@23@A
    ?StaticClassStorage@FInterfaceProperty@Unreal@RC@@0VFFieldClassVariant@23@A
    ?StaticClassStorage@FLazyObjectProperty@Unreal@RC@@0VFFieldClassVariant@23@A
    ?StaticClassStorage@FMapProperty@Unreal@RC@@0VFFieldClassVariant@23@A
    ?StaticClassStorage@FMulticastDelegateProperty@Unreal@RC@@0VFFieldClassVariant@23@A
    ?StaticClassStorage@FMulticastInlineDelegateProperty@Unreal@RC@@0VFFieldClassVariant@23@A
    ?StaticClassStorage@FMulticastSparseDelegateProperty@Unreal@RC@@0VFFieldClassVariant@23@A
    ?StaticClassStorage@FNameProperty@Unreal@RC@@0VFFieldClassVariant@23@A
    ?StaticClassStorage@FNumericProperty@Unreal@RC@@0VFFieldClassVariant@23@A
    ?StaticClassStorage@FObjectProperty@Unreal@RC@@0VFFieldClassVariant@23@A
    ?StaticClassStorage@FObjectPropertyBase@Unreal@RC@@0VFFieldClassVariant@23@A
    ?StaticClassStorage@FObjectPtrProperty@Unreal@RC@@0VFFieldClassVariant@23@A
    ?StaticClassStorage@FOptionalProperty@Unreal@RC@@0VFFieldClassVariant@23@A
    ?StaticClassStorage@FProperty@Unreal@RC@@0VFFieldClassVariant@23@A
    ?StaticClassStorage@FSetProperty@Unreal@RC@@0VFFieldClassVariant@23@A
    ?StaticClassStorage@FSoftClassProperty@Unreal@RC@@0VFFieldClassVariant@23@A
    ?StaticClassStorage@FSoftObjectProperty@Unreal@RC@@0VFFieldClassVariant@23@A
    ?StaticClassStorage@FStrProperty@Unreal@RC@@0VFFieldClassVariant@23@A
    ?StaticClassStorage@FStructProperty@Unreal@RC@@0VFFieldClassVariant@23@A
    ?StaticClassStorage@FTextProperty@Unreal@RC@@0VFFieldClassVariant@23@A
    ?StaticClassStorage@FUInt16Property@Unreal@RC@@0VFFieldClassVariant@23@A
    ?StaticClassStorage@FUInt32Property@Unreal@RC@@0VFFieldClassVariant@23@A
    ?StaticClassStorage@FUInt64Property@Unreal@RC@@0VFFieldClassVariant@23@A
    ?StaticClassStorage@FUtf8StrProperty@Unreal@RC@@0VFFieldClassVariant@23@A
    ?StaticClassStorage@FWeakObjectProperty@Unreal@RC@@0VFFieldClassVariant@23@A
    ?StaticClassStorage@FWorldContext@Unreal@RC@@0PEAVUClass@23@EA
    ?StaticClassStorage@UActorComponent@Unreal@RC@@0PEAVUClass@23@EA
    ?StaticClassStorage@UAnimBlueprintGeneratedClass@Unreal@RC@@0PEAVUClass@23@EA
    ?StaticClassStorage@UBlueprintGeneratedClass@Unreal@RC@@0PEAVUClass@23@EA
    ?StaticClassStorage@UCanvasPanel@Unreal@RC@@0PEAVUClass@23@EA
    ?StaticClassStorage@UClass@Unreal@RC@@0PEAV123@EA
    ?StaticClassStorage@UDataTable@Unreal@RC@@0PEAVUClass@23@EA
    ?StaticClassStorage@UDelegateFunction@Unreal@RC@@0PEAVUClass@23@EA
    ?StaticClassStorage@UEngine@Unreal@RC@@0PEAVUClass@23@EA
    ?StaticClassStorage@UEnum@Unreal@RC@@0PEAVUClass@23@EA
    ?StaticClassStorage@UField@Unreal@RC@@0PEAVUClass@23@EA
    ?StaticClassStorage@UFunction@Unreal@RC@@0PEAVUClass@23@EA
    ?StaticClassStorage@UGameViewportClient@Unreal@RC@@0PEAVUClass@23@EA
    ?StaticClassStorage@UInterface@Unreal@RC@@0PEAVUClass@23@EA
    ?StaticClassStorage@ULocalPlayer@Unreal@RC@@0PEAVUClass@23@EA
    ?StaticClassStorage@UObject@Unreal@RC@@0PEAVUClass@23@EA
    ?StaticClassStorage@UPackage@Unreal@RC@@0PEAVUClass@23@EA
    ?StaticClassStorage@UPlayer@Unreal@RC@@0PEAVUClass@23@EA
    ?StaticClassStorage@USceneComponent@Unreal@RC@@0PEAVUClass@23@EA
    ?StaticClassStorage@UScriptStruct@Unreal@RC@@0PEAVUClass@23@EA
    ?StaticClassStorage@USparseDelegateFunction@Unreal@RC@@0PEAVUClass@23@EA
    ?StaticClassStorage@UStruct@Unreal@RC@@0PEAVUClass@23@EA
    ?StaticClassStorage@UUserDefinedEnum@Unreal@RC@@0PEAVUClass@23@EA
    ?StaticClassStorage@UWidgetBlueprintGeneratedClass@Unreal@RC@@0PEAVUClass@23@EA
    ?StaticClassStorage@UWorld@Unreal@RC@@0PEAVUClass@23@EA
    ?StaticConstructObject@UObjectGlobals@Unreal@RC@@YAPEAVUObject@23@AEBUFStaticConstructObjectParameters@23@@Z
    ?StaticConstructObjectInternal@GlobalState@UObjectGlobals@Unreal@RC@@2V?$Function@$$A6APEAVUObject@Unreal@RC@@AEBUFStaticConstructObjectParameters@23@@Z@4@A
    ?StaticConstructObjectInternalDeprecated@GlobalState@UObjectGlobals@Unreal@RC@@2V?$Function@$$A6APEAVUObject@Unreal@RC@@PEBVUClass@23@PEAV123@VFName@23@W4EObjectFlags@23@W4EInternalObjectFlags@23@1_NPEAUFObjectInstancingGraph@23@5PEAX@Z@4@A
    ?StaticFindObject_InternalNoToStringFromNames@UObjectGlobals@Unreal@RC@@YAPEAVUObject@23@AEBV?$vector@VFName@Unreal@RC@@V?$allocator@VFName@Unreal@RC@@@std@@@std@@@Z
    ?StaticFindObject_InternalNoToStringFromStrings@UObjectGlobals@Unreal@RC@@YAPEAVUObject@23@AEBV?$vector@V?$basic_string_view@_WU?$char_traits@_W@std@@@std@@V?$allocator@V?$basic_string_view@_WU?$char_traits@_W@std@@@std@@@2@@std@@@Z
    ?StaticFindObject_InternalSlow@UObjectGlobals@Unreal@RC@@YAPEAVUObject@23@PEAVUClass@23@PEAV423@PEB_W_N@Z
    ?StaticPackage@AActor@Unreal@RC@@CAPEB_WXZ
    ?StaticPackage@AGameMode@Unreal@RC@@CAPEB_WXZ
    ?StaticPackage@AGameModeBase@Unreal@RC@@CAPEB_WXZ
    ?StaticPackage@FAssetData@Unreal@RC@@CAPEB_WXZ
    ?StaticPackage@FWorldContext@Unreal@RC@@CAPEB_WXZ
    ?StaticPackage@UActorComponent@Unreal@RC@@CAPEB_WXZ
    ?StaticPackage@UAnimBlueprintGeneratedClass@Unreal@RC@@CAPEB_WXZ
    ?StaticPackage@UBlueprintGeneratedClass@Unreal@RC@@CAPEB_WXZ
    ?StaticPackage@UCanvasPanel@Unreal@RC@@CAPEB_WXZ
    ?StaticPackage@UClass@Unreal@RC@@CAPEB_WXZ
    ?StaticPackage@UDataTable@Unreal@RC@@CAPEB_WXZ
    ?StaticPackage@UDelegateFunction@Unreal@RC@@CAPEB_WXZ
    ?StaticPackage@UEngine@Unreal@RC@@CAPEB_WXZ
    ?StaticPackage@UEnum@Unreal@RC@@CAPEB_WXZ
    ?StaticPackage@UField@Unreal@RC@@CAPEB_WXZ
    ?StaticPackage@UFunction@Unreal@RC@@CAPEB_WXZ
    ?StaticPackage@UGameViewportClient@Unreal@RC@@CAPEB_WXZ
    ?StaticPackage@UInterface@Unreal@RC@@CAPEB_WXZ
    ?StaticPackage@ULocalPlayer@Unreal@RC@@CAPEB_WXZ
    ?StaticPackage@UObject@Unreal@RC@@CAPEB_WXZ
    ?StaticPackage@UPackage@Unreal@RC@@CAPEB_WXZ
    ?StaticPackage@UPlayer@Unreal@RC@@CAPEB_WXZ
    ?StaticPackage@USceneComponent@Unreal@RC@@CAPEB_WXZ
    ?StaticPackage@UScriptStruct@Unreal@RC@@CAPEB_WXZ
    ?StaticPackage@USparseDelegateFunction@Unreal@RC@@CAPEB_WXZ
    ?StaticPackage@UStruct@Unreal@RC@@CAPEB_WXZ
    ?StaticPackage@UUserDefinedEnum@Unreal@RC@@CAPEB_WXZ
    ?StaticPackage@UWidgetBlueprintGeneratedClass@Unreal@RC@@CAPEB_WXZ
    ?StaticPackage@UWorld@Unreal@RC@@CAPEB_WXZ
    ?StaticSize@FAssetData@Unreal@RC@@SAHXZ
    ?StaticSize@FFieldVariant@Unreal@RC@@SAHXZ
    ?StaticSize@FQuat@Unreal@RC@@SAHXZ
    ?StaticSize@FText@Unreal@RC@@SAHXZ
    ?StaticSize_Private@FAssetData@Unreal@RC@@0HA
    ?StaticSize_Private@FText@Unreal@RC@@0HA
    ?Step@FFrame@Unreal@RC@@QEAAXPEAVUObject@23@PEAX@Z
    ?StepCompiledIn@FFrame@Unreal@RC@@QEAAXPEAXPEAVFProperty@23@@Z
    ?StepCompiledIn@FFrame@Unreal@RC@@QEAAXPEAXVFFieldClassVariant@23@@Z
    ?StepExplicitProperty@FFrame@Unreal@RC@@QEAAXQEAXPEAVFProperty@23@@Z
    ?StopCallbackGarbageCollector@Hook@Unreal@RC@@YA_NXZ
    ?Stricmp@FGenericPlatformStricmp@Unreal@RC@@SAHPEBD0@Z
    ?Stricmp@FGenericPlatformStricmp@Unreal@RC@@SAHPEBDPEBG@Z
    ?Stricmp@FGenericPlatformStricmp@Unreal@RC@@SAHPEBDPEB_Q@Z
    ?Stricmp@FGenericPlatformStricmp@Unreal@RC@@SAHPEBDPEB_U@Z
    ?Stricmp@FGenericPlatformStricmp@Unreal@RC@@SAHPEBDPEB_W@Z
    ?Stricmp@FGenericPlatformStricmp@Unreal@RC@@SAHPEBG0@Z
    ?Stricmp@FGenericPlatformStricmp@Unreal@RC@@SAHPEBGPEBD@Z
    ?Stricmp@FGenericPlatformStricmp@Unreal@RC@@SAHPEB_Q0@Z
    ?Stricmp@FGenericPlatformStricmp@Unreal@RC@@SAHPEB_QPEBD@Z
    ?Stricmp@FGenericPlatformStricmp@Unreal@RC@@SAHPEB_U0@Z
    ?Stricmp@FGenericPlatformStricmp@Unreal@RC@@SAHPEB_UPEBD@Z
    ?Stricmp@FGenericPlatformStricmp@Unreal@RC@@SAHPEB_W0@Z
    ?Stricmp@FGenericPlatformStricmp@Unreal@RC@@SAHPEB_WPEBD@Z
    ?Strncmp@FGenericPlatformString@Unreal@RC@@SAHPEBD0_K@Z
    ?Strncmp@FGenericPlatformString@Unreal@RC@@SAHPEBDPEB_Q_K@Z
    ?Strncmp@FGenericPlatformString@Unreal@RC@@SAHPEBDPEB_W_K@Z
    ?Strncmp@FGenericPlatformString@Unreal@RC@@SAHPEB_Q0_K@Z
    ?Strncmp@FGenericPlatformString@Unreal@RC@@SAHPEB_QPEBD_K@Z
    ?Strncmp@FGenericPlatformString@Unreal@RC@@SAHPEB_QPEB_W_K@Z
    ?Strncmp@FGenericPlatformString@Unreal@RC@@SAHPEB_W0_K@Z
    ?Strncmp@FGenericPlatformString@Unreal@RC@@SAHPEB_WPEBD_K@Z
    ?Strncmp@FGenericPlatformString@Unreal@RC@@SAHPEB_WPEB_Q_K@Z
    ?Strnicmp@FGenericPlatformStricmp@Unreal@RC@@SAHPEBD0_K@Z
    ?Strnicmp@FGenericPlatformStricmp@Unreal@RC@@SAHPEBDPEBG_K@Z
    ?Strnicmp@FGenericPlatformStricmp@Unreal@RC@@SAHPEBDPEB_Q_K@Z
    ?Strnicmp@FGenericPlatformStricmp@Unreal@RC@@SAHPEBDPEB_U_K@Z
    ?Strnicmp@FGenericPlatformStricmp@Unreal@RC@@SAHPEBDPEB_W_K@Z
    ?Strnicmp@FGenericPlatformStricmp@Unreal@RC@@SAHPEBG0_K@Z
    ?Strnicmp@FGenericPlatformStricmp@Unreal@RC@@SAHPEBGPEBD_K@Z
    ?Strnicmp@FGenericPlatformStricmp@Unreal@RC@@SAHPEB_Q0_K@Z
    ?Strnicmp@FGenericPlatformStricmp@Unreal@RC@@SAHPEB_QPEBD_K@Z
    ?Strnicmp@FGenericPlatformStricmp@Unreal@RC@@SAHPEB_U0_K@Z
    ?Strnicmp@FGenericPlatformStricmp@Unreal@RC@@SAHPEB_UPEBD_K@Z
    ?Strnicmp@FGenericPlatformStricmp@Unreal@RC@@SAHPEB_W0_K@Z
    ?Strnicmp@FGenericPlatformStricmp@Unreal@RC@@SAHPEB_WPEBD_K@Z
    ?SupportsNetSharedSerialization@FProperty@Unreal@RC@@QEBA_NXZ
    ?TagDynamic@FNameData@UEnum@Unreal@RC@@2_KB
    ?TagSubobjects@UObject@Unreal@RC@@QEAAXW4EObjectFlags@23@@Z
    ?TaggedAssetBundles@FAssetData@Unreal@RC@@QEAAPEAUFAssetBundleData@23@XZ
    ?TagsAndValues@FAssetData@Unreal@RC@@QEAAPEAXXZ
    ?TearDown@FOutputDevice@Unreal@RC@@QEAAXXZ
    ?TickInternal@AActor@Unreal@RC@@2V?$Function@$$A6AXPEAVAActor@Unreal@RC@@M@Z@3@A
    ?TickInternal@UEngine@Unreal@RC@@2V?$Function@$$A6AXPEAVUEngine@Unreal@RC@@M_N@Z@3@A
    ?TickInternal@UGameViewportClient@Unreal@RC@@2V?$Function@$$A6AXPEAVUGameViewportClient@Unreal@RC@@M@Z@3@A
    ?ToFAnsiString@FName@Unreal@RC@@QEBA?AVFAnsiString@23@XZ
    ?ToFString@FName@Unreal@RC@@QEBA?AVFString@23@XZ
    ?ToFString@FText@Unreal@RC@@QEBA?AVFString@23@XZ
    ?ToFUtf8String@FName@Unreal@RC@@QEBA?AVFUtf8String@23@XZ
    ?ToField@FFieldVariant@Unreal@RC@@QEAAPEAVFField@23@XZ
    ?ToFieldClass@FFieldClassVariant@Unreal@RC@@AEBAPEBVFFieldClass@23@XZ
    ?ToFieldUnsafe@FFieldVariant@Unreal@RC@@QEBAPEAVFField@23@XZ
    ?ToLower@FAnsiString@Unreal@RC@@QEBA?AV123@XZ
    ?ToLower@FString@Unreal@RC@@QEBA?AV123@XZ
    ?ToLower@FUtf8String@Unreal@RC@@QEBA?AV123@XZ
    ?ToLowerInline@?$TStringBase@D@Unreal@RC@@QEAAXXZ
    ?ToLowerInline@?$TStringBase@_Q@Unreal@RC@@QEAAXXZ
    ?ToLowerInline@?$TStringBase@_W@Unreal@RC@@QEAAXXZ
    ?ToString@FName@Unreal@RC@@QEAA?AV?$basic_string@_WU?$char_traits@_W@std@@V?$allocator@_W@2@@std@@XZ
    ?ToString@FName@Unreal@RC@@QEBA?BV?$basic_string@_WU?$char_traits@_W@std@@V?$allocator@_W@2@@std@@XZ
    ?ToString@FText@Unreal@RC@@QEBA?AV?$basic_string@_WU?$char_traits@_W@std@@V?$allocator@_W@2@@std@@XZ
    ?ToString@UE4SSBaseObjectName@LuaType@RC@@SAPEBDXZ
    ?ToString@UObjectName@LuaType@RC@@SAPEBDXZ
    ?ToStringInternal@FName@Unreal@RC@@2V?$Function@$$A6AXPEBVFName@Unreal@RC@@AEAVFStringOut@23@@Z@3@A
    ?ToUClass@FFieldClassVariant@Unreal@RC@@AEBAPEBVUClass@23@XZ
    ?ToUObject@FFieldVariant@Unreal@RC@@QEAAPEAVUObject@23@XZ
    ?ToUObjectUnsafe@FFieldVariant@Unreal@RC@@QEBAPEAVUObject@23@XZ
    ?ToUnstableInt@FName@Unreal@RC@@QEBA_KXZ
    ?ToUpper@FAnsiString@Unreal@RC@@QEBA?AV123@XZ
    ?ToUpper@FString@Unreal@RC@@QEBA?AV123@XZ
    ?ToUpper@FUtf8String@Unreal@RC@@QEBA?AV123@XZ
    ?ToUpperInline@?$TStringBase@D@Unreal@RC@@QEAAXXZ
    ?ToUpperInline@?$TStringBase@_Q@Unreal@RC@@QEAAXXZ
    ?ToUpperInline@?$TStringBase@_W@Unreal@RC@@QEAAXXZ
    ?Translation@FTransform@Unreal@RC@@QEAAAEAUFVector@23@XZ
    ?Trim@FAnsiString@Unreal@RC@@QEBA?AV123@XZ
    ?Trim@FMalloc@Unreal@RC@@QEAAX_N@Z
    ?Trim@FMemory@Unreal@RC@@SAX_N@Z
    ?Trim@FString@Unreal@RC@@QEBA?AV123@XZ
    ?Trim@FUtf8String@Unreal@RC@@QEBA?AV123@XZ
    ?TrimEnd@FAnsiString@Unreal@RC@@QEBA?AV123@XZ
    ?TrimEnd@FString@Unreal@RC@@QEBA?AV123@XZ
    ?TrimEnd@FUtf8String@Unreal@RC@@QEBA?AV123@XZ
    ?TrimStart@FAnsiString@Unreal@RC@@QEBA?AV123@XZ
    ?TrimStart@FString@Unreal@RC@@QEBA?AV123@XZ
    ?TrimStart@FUtf8String@Unreal@RC@@QEBA?AV123@XZ
    ?TrimStartAndEnd@FAnsiString@Unreal@RC@@QEBA?AV123@XZ
    ?TrimStartAndEnd@FString@Unreal@RC@@QEBA?AV123@XZ
    ?TrimStartAndEnd@FUtf8String@Unreal@RC@@QEBA?AV123@XZ
    ?TryBeginExecution@FCallbackMetadata@Internal@Hook@Unreal@RC@@QEAA_N_NAEA_N@Z
    ?TryConstruct@FField@Unreal@RC@@SAPEAV123@AEBVFName@23@AEBVFFieldVariant@23@0W4EObjectFlags@23@@Z
    ?TryMalloc@FMalloc@Unreal@RC@@QEAAPEAX_KI@Z
    ?TryRealloc@FMalloc@Unreal@RC@@QEAAPEAXPEAX_KI@Z
    ?UEP_TotalSize@AGameMode@Unreal@RC@@SAAEAHXZ
    ?UEP_TotalSize@AGameModeBase@Unreal@RC@@SAAEAHXZ
    ?UEP_TotalSize@FArrayProperty@Unreal@RC@@SAAEAHXZ
    ?UEP_TotalSize@FBoolProperty@Unreal@RC@@SAAEAHXZ
    ?UEP_TotalSize@FByteProperty@Unreal@RC@@SAAEAHXZ
    ?UEP_TotalSize@FClassProperty@Unreal@RC@@SAAEAHXZ
    ?UEP_TotalSize@FDelegateProperty@Unreal@RC@@SAAEAHXZ
    ?UEP_TotalSize@FEnumProperty@Unreal@RC@@SAAEAHXZ
    ?UEP_TotalSize@FField@Unreal@RC@@SAAEAHXZ
    ?UEP_TotalSize@FFieldClass@Unreal@RC@@SAAEAHXZ
    ?UEP_TotalSize@FFieldPathProperty@Unreal@RC@@SAAEAHXZ
    ?UEP_TotalSize@FInterfaceProperty@Unreal@RC@@SAAEAHXZ
    ?UEP_TotalSize@FMapProperty@Unreal@RC@@SAAEAHXZ
    ?UEP_TotalSize@FMulticastDelegateProperty@Unreal@RC@@SAAEAHXZ
    ?UEP_TotalSize@FObjectPropertyBase@Unreal@RC@@SAAEAHXZ
    ?UEP_TotalSize@FOutputDevice@Unreal@RC@@SAAEAHXZ
    ?UEP_TotalSize@FProperty@Unreal@RC@@SAAEAHXZ
    ?UEP_TotalSize@FSetProperty@Unreal@RC@@SAAEAHXZ
    ?UEP_TotalSize@FSoftClassProperty@Unreal@RC@@SAAEAHXZ
    ?UEP_TotalSize@FStructProperty@Unreal@RC@@SAAEAHXZ
    ?UEP_TotalSize@FUObjectArray@Unreal@RC@@SAAEAHXZ
    ?UEP_TotalSize@FUObjectItem@Unreal@RC@@SAAEAHXZ
    ?UEP_TotalSize@FWorldContext@Unreal@RC@@SAAEAHXZ
    ?UEP_TotalSize@ICppStructOps@UScriptStruct@Unreal@RC@@SAAEAHXZ
    ?UEP_TotalSize@TUObjectArray@Unreal@RC@@SAAEAHXZ
    ?UEP_TotalSize@UClass@Unreal@RC@@SAAEAHXZ
    ?UEP_TotalSize@UDataTable@Unreal@RC@@SAAEAHXZ
    ?UEP_TotalSize@UEnum@Unreal@RC@@SAAEAHXZ
    ?UEP_TotalSize@UField@Unreal@RC@@SAAEAHXZ
    ?UEP_TotalSize@UFunction@Unreal@RC@@SAAEAHXZ
    ?UEP_TotalSize@ULocalPlayer@Unreal@RC@@SAAEAHXZ
    ?UEP_TotalSize@UObjectBase@Unreal@RC@@SAAEAHXZ
    ?UEP_TotalSize@UPlayer@Unreal@RC@@SAAEAHXZ
    ?UEP_TotalSize@UScriptStruct@Unreal@RC@@SAAEAHXZ
    ?UEP_TotalSize@UStruct@Unreal@RC@@SAAEAHXZ
    ?UEP_TotalSize@UWorld@Unreal@RC@@SAAEAHXZ
    ?UObjectMask@FFieldVariant@Unreal@RC@@0_KB
    ?UnlockGUObjectArray@FUObjectArray@Unreal@RC@@QEAAXXZ
    ?UnregisterAllHooks@UFunction@Unreal@RC@@QEAAXXZ
    ?UnregisterCallback@Hook@Unreal@RC@@YA_N_K@Z
    ?UnregisterHook@UFunction@Unreal@RC@@QEAA_NH@Z
    ?UnregisterHook@UObjectGlobals@Unreal@RC@@YAXAEBV?$basic_string@_WU?$char_traits@_W@std@@V?$allocator@_W@2@@std@@U?$pair@HH@5@@Z
    ?UnregisterHook@UObjectGlobals@Unreal@RC@@YAXPEAVUFunction@23@U?$pair@HH@std@@@Z
    ?UnsetFlagsInternal@FUObjectItem@Unreal@RC@@AEAAXW4EInternalObjectFlags@23@@Z
    ?UnsetGCKeep@FUObjectItem@Unreal@RC@@QEAAXXZ
    ?UnsetRootSet@FUObjectItem@Unreal@RC@@QEAAXXZ
    ?UpdateStats@FMalloc@Unreal@RC@@QEAAXXZ
    ?VTableLayoutMap@AActor@Unreal@RC@@2V?$unordered_map@V?$basic_string@_WU?$char_traits@_W@std@@V?$allocator@_W@2@@std@@IU?$hash@V?$basic_string@_WU?$char_traits@_W@std@@V?$allocator@_W@2@@std@@@2@U?$equal_to@V?$basic_string@_WU?$char_traits@_W@std@@V?$allocator@_W@2@@std@@@2@V?$allocator@U?$pair@$$CBV?$basic_string@_WU?$char_traits@_W@std@@V?$allocator@_W@2@@std@@I@std@@@2@@std@@A
    ?VTableLayoutMap@AGameMode@Unreal@RC@@2V?$unordered_map@V?$basic_string@_WU?$char_traits@_W@std@@V?$allocator@_W@2@@std@@IU?$hash@V?$basic_string@_WU?$char_traits@_W@std@@V?$allocator@_W@2@@std@@@2@U?$equal_to@V?$basic_string@_WU?$char_traits@_W@std@@V?$allocator@_W@2@@std@@@2@V?$allocator@U?$pair@$$CBV?$basic_string@_WU?$char_traits@_W@std@@V?$allocator@_W@2@@std@@I@std@@@2@@std@@A
    ?VTableLayoutMap@AGameModeBase@Unreal@RC@@2V?$unordered_map@V?$basic_string@_WU?$char_traits@_W@std@@V?$allocator@_W@2@@std@@IU?$hash@V?$basic_string@_WU?$char_traits@_W@std@@V?$allocator@_W@2@@std@@@2@U?$equal_to@V?$basic_string@_WU?$char_traits@_W@std@@V?$allocator@_W@2@@std@@@2@V?$allocator@U?$pair@$$CBV?$basic_string@_WU?$char_traits@_W@std@@V?$allocator@_W@2@@std@@I@std@@@2@@std@@A
    ?VTableLayoutMap@FField@Unreal@RC@@2V?$unordered_map@V?$basic_string@_WU?$char_traits@_W@std@@V?$allocator@_W@2@@std@@IU?$hash@V?$basic_string@_WU?$char_traits@_W@std@@V?$allocator@_W@2@@std@@@2@U?$equal_to@V?$basic_string@_WU?$char_traits@_W@std@@V?$allocator@_W@2@@std@@@2@V?$allocator@U?$pair@$$CBV?$basic_string@_WU?$char_traits@_W@std@@V?$allocator@_W@2@@std@@I@std@@@2@@std@@A
    ?VTableLayoutMap@FMalloc@Unreal@RC@@2V?$unordered_map@V?$basic_string@_WU?$char_traits@_W@std@@V?$allocator@_W@2@@std@@IU?$hash@V?$basic_string@_WU?$char_traits@_W@std@@V?$allocator@_W@2@@std@@@2@U?$equal_to@V?$basic_string@_WU?$char_traits@_W@std@@V?$allocator@_W@2@@std@@@2@V?$allocator@U?$pair@$$CBV?$basic_string@_WU?$char_traits@_W@std@@V?$allocator@_W@2@@std@@I@std@@@2@@std@@A
    ?VTableLayoutMap@FMulticastDelegateProperty@Unreal@RC@@2V?$unordered_map@V?$basic_string@_WU?$char_traits@_W@std@@V?$allocator@_W@2@@std@@IU?$hash@V?$basic_string@_WU?$char_traits@_W@std@@V?$allocator@_W@2@@std@@@2@U?$equal_to@V?$basic_string@_WU?$char_traits@_W@std@@V?$allocator@_W@2@@std@@@2@V?$allocator@U?$pair@$$CBV?$basic_string@_WU?$char_traits@_W@std@@V?$allocator@_W@2@@std@@I@std@@@2@@std@@A
    ?VTableLayoutMap@FNumericProperty@Unreal@RC@@2V?$unordered_map@V?$basic_string@_WU?$char_traits@_W@std@@V?$allocator@_W@2@@std@@IU?$hash@V?$basic_string@_WU?$char_traits@_W@std@@V?$allocator@_W@2@@std@@@2@U?$equal_to@V?$basic_string@_WU?$char_traits@_W@std@@V?$allocator@_W@2@@std@@@2@V?$allocator@U?$pair@$$CBV?$basic_string@_WU?$char_traits@_W@std@@V?$allocator@_W@2@@std@@I@std@@@2@@std@@A
    ?VTableLayoutMap@FObjectPropertyBase@Unreal@RC@@2V?$unordered_map@V?$basic_string@_WU?$char_traits@_W@std@@V?$allocator@_W@2@@std@@IU?$hash@V?$basic_string@_WU?$char_traits@_W@std@@V?$allocator@_W@2@@std@@@2@U?$equal_to@V?$basic_string@_WU?$char_traits@_W@std@@V?$allocator@_W@2@@std@@@2@V?$allocator@U?$pair@$$CBV?$basic_string@_WU?$char_traits@_W@std@@V?$allocator@_W@2@@std@@I@std@@@2@@std@@A
    ?VTableLayoutMap@FOutputDevice@Unreal@RC@@2V?$unordered_map@V?$basic_string@_WU?$char_traits@_W@std@@V?$allocator@_W@2@@std@@IU?$hash@V?$basic_string@_WU?$char_traits@_W@std@@V?$allocator@_W@2@@std@@@2@U?$equal_to@V?$basic_string@_WU?$char_traits@_W@std@@V?$allocator@_W@2@@std@@@2@V?$allocator@U?$pair@$$CBV?$basic_string@_WU?$char_traits@_W@std@@V?$allocator@_W@2@@std@@I@std@@@2@@std@@A
    ?VTableLayoutMap@FProperty@Unreal@RC@@2V?$unordered_map@V?$basic_string@_WU?$char_traits@_W@std@@V?$allocator@_W@2@@std@@IU?$hash@V?$basic_string@_WU?$char_traits@_W@std@@V?$allocator@_W@2@@std@@@2@U?$equal_to@V?$basic_string@_WU?$char_traits@_W@std@@V?$allocator@_W@2@@std@@@2@V?$allocator@U?$pair@$$CBV?$basic_string@_WU?$char_traits@_W@std@@V?$allocator@_W@2@@std@@I@std@@@2@@std@@A
    ?VTableLayoutMap@ICppStructOps@UScriptStruct@Unreal@RC@@2V?$unordered_map@V?$basic_string@_WU?$char_traits@_W@std@@V?$allocator@_W@2@@std@@IU?$hash@V?$basic_string@_WU?$char_traits@_W@std@@V?$allocator@_W@2@@std@@@2@U?$equal_to@V?$basic_string@_WU?$char_traits@_W@std@@V?$allocator@_W@2@@std@@@2@V?$allocator@U?$pair@$$CBV?$basic_string@_WU?$char_traits@_W@std@@V?$allocator@_W@2@@std@@I@std@@@2@@std@@A
    ?VTableLayoutMap@ITextData@Unreal@RC@@2V?$unordered_map@V?$basic_string@_WU?$char_traits@_W@std@@V?$allocator@_W@2@@std@@IU?$hash@V?$basic_string@_WU?$char_traits@_W@std@@V?$allocator@_W@2@@std@@@2@U?$equal_to@V?$basic_string@_WU?$char_traits@_W@std@@V?$allocator@_W@2@@std@@@2@V?$allocator@U?$pair@$$CBV?$basic_string@_WU?$char_traits@_W@std@@V?$allocator@_W@2@@std@@I@std@@@2@@std@@A
    ?VTableLayoutMap@UClass@Unreal@RC@@2V?$unordered_map@V?$basic_string@_WU?$char_traits@_W@std@@V?$allocator@_W@2@@std@@IU?$hash@V?$basic_string@_WU?$char_traits@_W@std@@V?$allocator@_W@2@@std@@@2@U?$equal_to@V?$basic_string@_WU?$char_traits@_W@std@@V?$allocator@_W@2@@std@@@2@V?$allocator@U?$pair@$$CBV?$basic_string@_WU?$char_traits@_W@std@@V?$allocator@_W@2@@std@@I@std@@@2@@std@@A
    ?VTableLayoutMap@UDataTable@Unreal@RC@@2V?$unordered_map@V?$basic_string@_WU?$char_traits@_W@std@@V?$allocator@_W@2@@std@@IU?$hash@V?$basic_string@_WU?$char_traits@_W@std@@V?$allocator@_W@2@@std@@@2@U?$equal_to@V?$basic_string@_WU?$char_traits@_W@std@@V?$allocator@_W@2@@std@@@2@V?$allocator@U?$pair@$$CBV?$basic_string@_WU?$char_traits@_W@std@@V?$allocator@_W@2@@std@@I@std@@@2@@std@@A
    ?VTableLayoutMap@UEngine@Unreal@RC@@2V?$unordered_map@V?$basic_string@_WU?$char_traits@_W@std@@V?$allocator@_W@2@@std@@IU?$hash@V?$basic_string@_WU?$char_traits@_W@std@@V?$allocator@_W@2@@std@@@2@U?$equal_to@V?$basic_string@_WU?$char_traits@_W@std@@V?$allocator@_W@2@@std@@@2@V?$allocator@U?$pair@$$CBV?$basic_string@_WU?$char_traits@_W@std@@V?$allocator@_W@2@@std@@I@std@@@2@@std@@A
    ?VTableLayoutMap@UField@Unreal@RC@@2V?$unordered_map@V?$basic_string@_WU?$char_traits@_W@std@@V?$allocator@_W@2@@std@@IU?$hash@V?$basic_string@_WU?$char_traits@_W@std@@V?$allocator@_W@2@@std@@@2@U?$equal_to@V?$basic_string@_WU?$char_traits@_W@std@@V?$allocator@_W@2@@std@@@2@V?$allocator@U?$pair@$$CBV?$basic_string@_WU?$char_traits@_W@std@@V?$allocator@_W@2@@std@@I@std@@@2@@std@@A
    ?VTableLayoutMap@ULocalPlayer@Unreal@RC@@2V?$unordered_map@V?$basic_string@_WU?$char_traits@_W@std@@V?$allocator@_W@2@@std@@IU?$hash@V?$basic_string@_WU?$char_traits@_W@std@@V?$allocator@_W@2@@std@@@2@U?$equal_to@V?$basic_string@_WU?$char_traits@_W@std@@V?$allocator@_W@2@@std@@@2@V?$allocator@U?$pair@$$CBV?$basic_string@_WU?$char_traits@_W@std@@V?$allocator@_W@2@@std@@I@std@@@2@@std@@A
    ?VTableLayoutMap@UObject@Unreal@RC@@2V?$unordered_map@V?$basic_string@_WU?$char_traits@_W@std@@V?$allocator@_W@2@@std@@IU?$hash@V?$basic_string@_WU?$char_traits@_W@std@@V?$allocator@_W@2@@std@@@2@U?$equal_to@V?$basic_string@_WU?$char_traits@_W@std@@V?$allocator@_W@2@@std@@@2@V?$allocator@U?$pair@$$CBV?$basic_string@_WU?$char_traits@_W@std@@V?$allocator@_W@2@@std@@I@std@@@2@@std@@A
    ?VTableLayoutMap@UObjectBase@Unreal@RC@@2V?$unordered_map@V?$basic_string@_WU?$char_traits@_W@std@@V?$allocator@_W@2@@std@@IU?$hash@V?$basic_string@_WU?$char_traits@_W@std@@V?$allocator@_W@2@@std@@@2@U?$equal_to@V?$basic_string@_WU?$char_traits@_W@std@@V?$allocator@_W@2@@std@@@2@V?$allocator@U?$pair@$$CBV?$basic_string@_WU?$char_traits@_W@std@@V?$allocator@_W@2@@std@@I@std@@@2@@std@@A
    ?VTableLayoutMap@UObjectBaseUtility@Unreal@RC@@2V?$unordered_map@V?$basic_string@_WU?$char_traits@_W@std@@V?$allocator@_W@2@@std@@IU?$hash@V?$basic_string@_WU?$char_traits@_W@std@@V?$allocator@_W@2@@std@@@2@U?$equal_to@V?$basic_string@_WU?$char_traits@_W@std@@V?$allocator@_W@2@@std@@@2@V?$allocator@U?$pair@$$CBV?$basic_string@_WU?$char_traits@_W@std@@V?$allocator@_W@2@@std@@I@std@@@2@@std@@A
    ?VTableLayoutMap@UPlayer@Unreal@RC@@2V?$unordered_map@V?$basic_string@_WU?$char_traits@_W@std@@V?$allocator@_W@2@@std@@IU?$hash@V?$basic_string@_WU?$char_traits@_W@std@@V?$allocator@_W@2@@std@@@2@U?$equal_to@V?$basic_string@_WU?$char_traits@_W@std@@V?$allocator@_W@2@@std@@@2@V?$allocator@U?$pair@$$CBV?$basic_string@_WU?$char_traits@_W@std@@V?$allocator@_W@2@@std@@I@std@@@2@@std@@A
    ?VTableLayoutMap@UStruct@Unreal@RC@@2V?$unordered_map@V?$basic_string@_WU?$char_traits@_W@std@@V?$allocator@_W@2@@std@@IU?$hash@V?$basic_string@_WU?$char_traits@_W@std@@V?$allocator@_W@2@@std@@@2@U?$equal_to@V?$basic_string@_WU?$char_traits@_W@std@@V?$allocator@_W@2@@std@@@2@V?$allocator@U?$pair@$$CBV?$basic_string@_WU?$char_traits@_W@std@@V?$allocator@_W@2@@std@@I@std@@@2@@std@@A
    ?ValidateGeneratedRepEnums@UObject@Unreal@RC@@QEBAXAEBV?$TArray@UFRepRecord@Unreal@RC@@V?$TSizedDefaultAllocator@$0CA@@23@@23@@Z
    ?ValidateHeap@FMalloc@Unreal@RC@@QEAA_NXZ
    ?ValuePropertyOffset@?1??GetValueProperty@FOptionalProperty@Unreal@RC@@QEBAAEAPEAVFProperty@34@XZ@4HA
    ?ValuePropertyOffset@?1??GetValueProperty@FOptionalPropertyLayout@Unreal@RC@@QEBAAEAPEAVFProperty@34@XZ@4HA
    ?VerifySelf@UAssetRegistryHelpers@Unreal@RC@@CA_NXZ
    ?VerifySelf@UGameplayStatics@Unreal@RC@@CA_NXZ
    ?VerifySelf@UKismetSystemLibrary@Unreal@RC@@CA_NXZ
    ?Virtual_10@FOutputDevice@Unreal@RC@@UEAAXXZ
    ?Virtual_11@FOutputDevice@Unreal@RC@@UEAAXXZ
    ?Virtual_12@FOutputDevice@Unreal@RC@@UEAAXXZ
    ?Virtual_13@FOutputDevice@Unreal@RC@@UEAAXXZ
    ?Virtual_14@FOutputDevice@Unreal@RC@@UEAAXXZ
    ?Virtual_15@FOutputDevice@Unreal@RC@@UEAAXXZ
    ?Virtual_16@FOutputDevice@Unreal@RC@@UEAAXXZ
    ?Virtual_17@FOutputDevice@Unreal@RC@@UEAAXXZ
    ?Virtual_18@FOutputDevice@Unreal@RC@@UEAAXXZ
    ?Virtual_19@FOutputDevice@Unreal@RC@@UEAAXXZ
    ?Virtual_20@FOutputDevice@Unreal@RC@@UEAAXXZ
    ?Virtual_21@FOutputDevice@Unreal@RC@@UEAAXXZ
    ?Virtual_22@FOutputDevice@Unreal@RC@@UEAAXXZ
    ?Virtual_23@FOutputDevice@Unreal@RC@@UEAAXXZ
    ?Virtual_24@FOutputDevice@Unreal@RC@@UEAAXXZ
    ?Virtual_25@FOutputDevice@Unreal@RC@@UEAAXXZ
    ?Virtual_26@FOutputDevice@Unreal@RC@@UEAAXXZ
    ?Virtual_27@FOutputDevice@Unreal@RC@@UEAAXXZ
    ?Virtual_28@FOutputDevice@Unreal@RC@@UEAAXXZ
    ?Virtual_29@FOutputDevice@Unreal@RC@@UEAAXXZ
    ?Virtual_30@FOutputDevice@Unreal@RC@@UEAAXXZ
    ?Virtual_4@FOutputDevice@Unreal@RC@@UEAAXXZ
    ?Virtual_5@FOutputDevice@Unreal@RC@@UEAAXXZ
    ?Virtual_6@FOutputDevice@Unreal@RC@@UEAAXXZ
    ?Virtual_7@FOutputDevice@Unreal@RC@@UEAAXXZ
    ?Virtual_8@FOutputDevice@Unreal@RC@@UEAAXXZ
    ?Virtual_9@FOutputDevice@Unreal@RC@@UEAAXXZ
    ?Virtual_Serialize@FOutputDevice@Unreal@RC@@UEAAXPEB_WW4Type@ELogVerbosity@23@AEBVFName@23@@Z
    ?Virtual_Serialize@FOutputDevice@Unreal@RC@@UEAAXPEB_WW4Type@ELogVerbosity@23@AEBVFName@23@N@Z
    ?W@FQuat@Unreal@RC@@QEAANXZ
    ?W@FQuat@Unreal@RC@@QEBANXZ
    ?WaitForExecutorsToFinish@FCallbackMetadata@Internal@Hook@Unreal@RC@@QEAAXXZ
    ?X@FQuat@Unreal@RC@@QEAANXZ
    ?X@FQuat@Unreal@RC@@QEBANXZ
    ?Y@FQuat@Unreal@RC@@QEAANXZ
    ?Y@FQuat@Unreal@RC@@QEBANXZ
    ?Z@FQuat@Unreal@RC@@QEAANXZ
    ?Z@FQuat@Unreal@RC@@QEBANXZ
    ?actions_lock@LuaMod@RC@@QEAAXXZ
    ?actions_unlock@LuaMod@RC@@QEAAXXZ
    ?add@TokenContainer@ParserBase@RC@@QEAA_KVToken@23@@Z
    ?add_bool_value@Value@Ini@RC@@QEAAX_N@Z
    ?add_float_value@Value@Ini@RC@@QEAAXAEBV?$basic_string@_WU?$char_traits@_W@std@@V?$allocator@_W@2@@std@@@Z
    ?add_function_value_internal@Table@Lua@LuaMadeSimple@RC@@AEBAXP6AHAEBV234@@Z@Z
    ?add_gui_tab@UE4SSProgram@RC@@QEAAXV?$shared_ptr@VGUITab@GUI@RC@@@std@@@Z
    ?add_int64_value@Value@Ini@RC@@QEAAXAEBV?$basic_string@_WU?$char_traits@_W@std@@V?$allocator@_W@2@@std@@H@Z
    ?add_metamethods@Lua@LuaMadeSimple@RC@@AEBA_NAEBUMetaMethods@123@AEBVTable@123@@Z
    ?add_mods_directory@UE4SSProgram@RC@@QEAAXAEBVpath@filesystem@std@@@Z
    ?add_string_value@Value@Ini@RC@@QEAAXV?$basic_string_view@_WU?$char_traits@_W@std@@@std@@@Z
    ?async_lua@LuaMod@RC@@QEBAPEBVLua@LuaMadeSimple@2@XZ
    ?auto_construct_object@LuaType@RC@@YAXAEBVLua@LuaMadeSimple@2@PEAVUObject@Unreal@2@@Z
    ?bAbortingExecution@FFrame@Unreal@RC@@QEAAAEA_NXZ
    ?bAllRequiredObjectsConstructed@StaticStorage@Hook@Unreal@RC@@2_NA
    ?bArrayContextFailed@FFrame@Unreal@RC@@QEAAAEA_NXZ
    ?bIsInitialized@StaticStorage@UnrealInitializer@Unreal@RC@@2_NA
    ?bPreInitCompleted@StaticStorage@UnrealInitializer@Unreal@RC@@2_NA
    ?bScanFullyCompleted@StaticStorage@UnrealInitializer@Unreal@RC@@2_NA
    ?bVersionedContainerIsInitialized@StaticStorage@UnrealInitializer@Unreal@RC@@2_NA
    ?calc_next_token_offset@TokenParser@ParserBase@RC@@AEBA_K_KW4PeekDirection@123@@Z
    ?call_function@Lua@LuaMadeSimple@RC@@QEBAXHH@Z
    ?call_function@Lua@LuaMadeSimple@RC@@QEBAXV?$basic_string_view@DU?$char_traits@D@std@@@std@@HH@Z
    ?can_process_events@UE4SSProgram@RC@@QEAA_NXZ
    ?characters_to_string@TokenParser@Ini@RC@@AEAA?AV?$basic_string@_WU?$char_traits@_W@std@@V?$allocator@_W@2@@std@@AEBVToken@ParserBase@3@@Z
    ?clear_subscribed_key@Handler@Input@RC@@QEAAXW4Key@23@@Z
    ?clear_subscribed_keys@Handler@Input@RC@@QEAAXXZ
    ?close_all_default_devices@DefaultTargets@Output@RC@@SAXXZ
    ?close_all_default_devices@Output@RC@@YAXXZ
    ?close_current_file@WinFile@File@RC@@UEAAXXZ
    ?construct_fname@LuaType@RC@@YAXAEBVLua@LuaMadeSimple@2@@Z
    ?construct_metamethods_object@Lua@LuaMadeSimple@RC@@AEBAXAEBV?$optional@UMetaMethods@Lua@LuaMadeSimple@RC@@@std@@V?$optional@V?$basic_string_view@DU?$char_traits@D@std@@@std@@@5@@Z
    ?construct_uclass@LuaType@RC@@YAXAEBVLua@LuaMadeSimple@2@@Z
    ?construct_with_string@FName@Unreal@RC@@AEAAXPEB_WIW4EFindName@23@PEAX@Z
    ?construct_with_string@FName@Unreal@RC@@AEAAXPEB_WW4EFindName@23@PEAX@Z
    ?construct_with_string@FText@Unreal@RC@@AEAAX$$QEBVFString@23@@Z
    ?construct_xproperty@LuaType@RC@@YAXAEBVLua@LuaMadeSimple@2@PEAVFProperty@Unreal@2@@Z
    ?consume@TokenParser@ParserBase@RC@@IEBAAEBVToken@23@HW4PeekDirection@123@@Z
    ?consume@TokenParser@ParserBase@RC@@IEBAAEBVToken@23@W4PeekDirection@123@@Z
    ?consume_and_ignore_until@TokenParser@ParserBase@RC@@IEBAAEBVToken@23@AEBV?$vector@HV?$allocator@H@std@@@std@@W4PeekDirection@123@@Z
    ?consume_and_ignore_until@TokenParser@ParserBase@RC@@IEBAAEBVToken@23@HW4PeekDirection@123@@Z
    ?consume_continually@TokenParser@ParserBase@RC@@IEBA_NV?$function@$$A6A_NAEBVToken@ParserBase@RC@@@Z@std@@@Z
    ?consume_until@TokenParser@ParserBase@RC@@IEBAXAEBV?$vector@HV?$allocator@H@std@@@std@@V?$function@$$A6A_NAEBVToken@ParserBase@RC@@@Z@5@W4PeekDirection@123@@Z
    ?consume_until@TokenParser@ParserBase@RC@@IEBAXHV?$function@$$A6A_NAEBVToken@ParserBase@RC@@@Z@std@@W4PeekDirection@123@@Z
    ?create@Token@ParserBase@RC@@SA?AV123@HV?$basic_string_view@_WU?$char_traits@_W@std@@@std@@0W4HasData@123@@Z
    ?create_available_tokens_for_tokenizer@Parser@Ini@RC@@AEAA?AVTokenContainer@ParserBase@3@XZ
    ?default_format_string@OutputDevice@Output@RC@@KA?AV?$basic_string@_WU?$char_traits@_W@std@@V?$allocator@_W@2@@std@@V?$basic_string_view@_WU?$char_traits@_W@std@@@5@@Z
    ?delete_file@File@RC@@YAXAEBVpath@filesystem@std@@@Z
    ?delete_file@WinFile@File@RC@@SAXAEBVpath@filesystem@std@@@Z
    ?delete_file@WinFile@File@RC@@UEAAXXZ
    ?delete_mod@UE4SSProgram@RC@@QEAAXPEAVMod@2@@Z
    ?deserialize@SettingsManager@RC@@QEAAXAEAVpath@filesystem@std@@@Z
    ?deserialize_identifying_properties@WinFile@File@RC@@UEAAXXZ
    ?discard_value@Lua@LuaMadeSimple@RC@@QEBAXH@Z
    ?does_field_exist@Table@Lua@LuaMadeSimple@RC@@QEAA_NV?$basic_string_view@DU?$char_traits@D@std@@@std@@@Z
    ?dump_all_objects_and_properties@UE4SSProgram@RC@@SAXAEBV?$basic_string@_WU?$char_traits@_W@std@@V?$allocator@_W@2@@std@@@Z
    ?dump_stack@Lua@LuaMadeSimple@RC@@QEBAXPEBD@Z
    ?dump_stack@LuaMadeSimple@RC@@YAXPEAUlua_State@@PEBD@Z
    ?dump_uobject@UE4SSProgram@RC@@SAXPEAVUObject@Unreal@2@PEAV?$unordered_set@PEAVFField@Unreal@RC@@U?$hash@PEAVFField@Unreal@RC@@@std@@U?$equal_to@PEAVFField@Unreal@RC@@@5@V?$allocator@PEAVFField@Unreal@RC@@@5@@std@@AEAV?$basic_string@_WU?$char_traits@_W@std@@V?$allocator@_W@2@@6@_NPEAV?$unordered_set@PEAVUFunction@Unreal@RC@@U?$hash@PEAVUFunction@Unreal@RC@@@std@@U?$equal_to@PEAVUFunction@Unreal@RC@@@5@V?$allocator@PEAVUFunction@Unreal@RC@@@5@@6@@Z
    ?execute_file@Lua@LuaMadeSimple@RC@@QEBAXV?$basic_string_view@DU?$char_traits@D@std@@@std@@@Z
    ?execute_file@Lua@LuaMadeSimple@RC@@QEBAXV?$basic_string_view@_SU?$char_traits@_S@std@@@std@@@Z
    ?execute_file@Lua@LuaMadeSimple@RC@@QEBAXV?$basic_string_view@_WU?$char_traits@_W@std@@@std@@@Z
    ?execute_string@Lua@LuaMadeSimple@RC@@QEBAXV?$basic_string_view@DU?$char_traits@D@std@@@std@@@Z
    ?execute_string@Lua@LuaMadeSimple@RC@@QEBAXV?$basic_string_view@_SU?$char_traits@_S@std@@@std@@@Z
    ?execute_string@Lua@LuaMadeSimple@RC@@QEBAXV?$basic_string_view@_WU?$char_traits@_W@std@@@std@@@Z
    ?find_lua_mod_by_name@UE4SSProgram@RC@@SAPEAVLuaMod@2@V?$basic_string_view@DU?$char_traits@D@std@@@std@@W4IsInstalled@12@W4IsStarted@12@@Z
    ?find_lua_mod_by_name@UE4SSProgram@RC@@SAPEAVLuaMod@2@V?$basic_string_view@_WU?$char_traits@_W@std@@@std@@W4IsInstalled@12@W4IsStarted@12@@Z
    ?find_value@Table@Lua@LuaMadeSimple@RC@@QEAAXXZ
    ?find_variable_by_name@TokenParser@Ini@RC@@AEAA?AV?$optional@V?$reference_wrapper@VValue@Ini@RC@@@std@@@std@@AEBV?$basic_string@_WU?$char_traits@_W@std@@V?$allocator@_W@2@@5@@Z
    ?find_variable_by_name@TokenParser@Ini@RC@@SA?AV?$optional@V?$reference_wrapper@VValue@Ini@RC@@@std@@@std@@PEAUSection@23@AEBV?$basic_string@_WU?$char_traits@_W@std@@V?$allocator@_W@2@@5@@Z
    ?fire_program_start@Mod@RC@@UEAAXXZ
    ?fire_ui_init@Mod@RC@@UEAAXXZ
    ?fire_unreal_init@Mod@RC@@UEAAXXZ
    ?fire_update@Mod@RC@@UEAAXXZ
    ?for_each_in_table@Lua@LuaMadeSimple@RC@@QEBAXAEBV?$function@$$A6A_NULuaTableReference@LuaMadeSimple@RC@@@Z@std@@@Z
    ?format_aob_strings@SinglePassScanner@RC@@CAXAEAV?$vector@VSignatureContainer@RC@@V?$allocator@VSignatureContainer@RC@@@std@@@std@@@Z
    ?fuse_pair@Table@Lua@LuaMadeSimple@RC@@QEAAXXZ
    ?generate_cxx_headers@UE4SSProgram@RC@@QEAAXAEBVpath@filesystem@std@@@Z
    ?generate_lua_types@UE4SSProgram@RC@@QEAAXAEBVpath@filesystem@std@@@Z
    ?generate_uht_compatible_headers@UE4SSProgram@RC@@QEAAXXZ
    ?get_all@TokenContainer@ParserBase@RC@@QEAAAEBV?$vector@VToken@ParserBase@RC@@V?$allocator@VToken@ParserBase@RC@@@std@@@std@@XZ
    ?get_all_input_events@UE4SSProgram@RC@@QEAAXV?$function@$$A6AXAEAUKeySet@Input@RC@@@Z@std@@@Z
    ?get_allow_input@Handler@Input@RC@@QEAA_NXZ
    ?get_async_thread_id@LuaMod@RC@@QEBA?AVid@thread@std@@XZ
    ?get_bool@?$LuaTableData@$0?0@LuaMadeSimple@RC@@QEBA_NXZ
    ?get_bool@?$LuaTableData@$0?1@LuaMadeSimple@RC@@QEBA_NXZ
    ?get_bool@Lua@LuaMadeSimple@RC@@QEBA_NH@Z
    ?get_bool@Parser@Ini@RC@@QEBA_NAEBV?$basic_string@_WU?$char_traits@_W@std@@V?$allocator@_W@2@@std@@0@Z
    ?get_bool@Parser@Ini@RC@@QEBA_NAEBV?$basic_string@_WU?$char_traits@_W@std@@V?$allocator@_W@2@@std@@0_N@Z
    ?get_bool_ref@Registry@Lua@LuaMadeSimple@RC@@QEBAXH@Z
    ?get_bool_value@Value@Ini@RC@@QEBA_NXZ
    ?get_by_type@TokenContainer@ParserBase@RC@@QEAAPEAVToken@23@H@Z
    ?get_column@Token@ParserBase@RC@@QEBA_KXZ
    ?get_current_imgui_allocator_functions@UE4SSProgram@RC@@SAXPEAP6APEAX_KPEAX@ZPEAP6AX11@ZPEAPEAX@Z
    ?get_current_imgui_context@UE4SSProgram@RC@@SAPEAUImGuiContext@@XZ
    ?get_current_input_source@Handler@Input@RC@@QEAA?AV?$basic_string@DU?$char_traits@D@std@@V?$allocator@D@2@@std@@XZ
    ?get_data@TokenParser@ParserBase@RC@@IEBA?BV?$basic_string@_WU?$char_traits@_W@std@@V?$allocator@_W@2@@std@@AEBVToken@23@@Z
    ?get_default_devices_ref@DefaultTargets@Output@RC@@SAAEAV?$vector@V?$unique_ptr@VOutputDevice@Output@RC@@U?$default_delete@VOutputDevice@Output@RC@@@std@@@std@@V?$allocator@V?$unique_ptr@VOutputDevice@Output@RC@@U?$default_delete@VOutputDevice@Output@RC@@@std@@@std@@@2@@std@@XZ
    ?get_default_log_level@DefaultTargets@Output@RC@@SAHXZ
    ?get_end@Token@ParserBase@RC@@QEBA_KXZ
    ?get_event_loop_thread_id@UE4SSProgram@RC@@QEBA?AVid@thread@std@@XZ
    ?get_events_safe@Handler@Input@RC@@QEAAXV?$function@$$A6AXAEAUKeySet@Input@RC@@@Z@std@@@Z
    ?get_file@WinFile@File@RC@@QEAAPEAXXZ
    ?get_file_path@WinFile@File@RC@@UEBAAEBVpath@filesystem@std@@XZ
    ?get_float@?$LuaTableData@$0?0@LuaMadeSimple@RC@@QEAAMH@Z
    ?get_float@?$LuaTableData@$0?1@LuaMadeSimple@RC@@QEAAMH@Z
    ?get_float@Lua@LuaMadeSimple@RC@@QEBAMH@Z
    ?get_float@Parser@Ini@RC@@QEBAMAEBV?$basic_string@_WU?$char_traits@_W@std@@V?$allocator@_W@2@@std@@0@Z
    ?get_float@Parser@Ini@RC@@QEBAMAEBV?$basic_string@_WU?$char_traits@_W@std@@V?$allocator@_W@2@@std@@0M@Z
    ?get_float_field@Table@Lua@LuaMadeSimple@RC@@QEAAMV?$basic_string_view@DU?$char_traits@D@std@@@std@@PEA_N@Z
    ?get_float_value@Value@Ini@RC@@QEBAMXZ
    ?get_function_ref@Registry@Lua@LuaMadeSimple@RC@@QEBAXH@Z
    ?get_game_executable_directory@UE4SSProgram@RC@@QEAA?AV?$basic_string@_WU?$char_traits@_W@std@@V?$allocator@_W@2@@std@@XZ
    ?get_id@Mod@RC@@QEBA_KXZ
    ?get_identifier@Token@ParserBase@RC@@QEBA?AV?$basic_string_view@_WU?$char_traits@_W@std@@@std@@XZ
    ?get_input_source@Handler@Input@RC@@SA?AV?$shared_ptr@VPlatformInputSource@Input@RC@@@std@@V?$basic_string@DU?$char_traits@D@std@@V?$allocator@D@2@@5@@Z
    ?get_int64@Parser@Ini@RC@@QEBA_JAEBV?$basic_string@_WU?$char_traits@_W@std@@V?$allocator@_W@2@@std@@0@Z
    ?get_int64@Parser@Ini@RC@@QEBA_JAEBV?$basic_string@_WU?$char_traits@_W@std@@V?$allocator@_W@2@@std@@0_J@Z
    ?get_int64_value@Value@Ini@RC@@QEBA_JXZ
    ?get_int_field@Table@Lua@LuaMadeSimple@RC@@QEAA_JV?$basic_string_view@DU?$char_traits@D@std@@@std@@PEA_N@Z
    ?get_integer@?$LuaTableData@$0?0@LuaMadeSimple@RC@@QEBA_JXZ
    ?get_integer@?$LuaTableData@$0?1@LuaMadeSimple@RC@@QEBA_JXZ
    ?get_integer@Lua@LuaMadeSimple@RC@@QEBA_JH@Z
    ?get_integer_ref@Registry@Lua@LuaMadeSimple@RC@@QEBAXH@Z
    ?get_last_token@Tokenizer@ParserBase@RC@@QEBAAEBVToken@23@XZ
    ?get_legacy_root_directory@UE4SSProgram@RC@@QEAA?AV?$basic_string@_WU?$char_traits@_W@std@@V?$allocator@_W@2@@std@@XZ
    ?get_level_name@TypeChecker@Unreal@RC@@SA?AVFName@23@XZ
    ?get_line@Token@ParserBase@RC@@QEBA_KXZ
    ?get_list@Parser@Ini@RC@@QEAA?AVList@23@AEBV?$basic_string@_WU?$char_traits@_W@std@@V?$allocator@_W@2@@std@@@Z
    ?get_lua_instance@Registry@Lua@LuaMadeSimple@RC@@QEBAAEBV234@XZ
    ?get_lua_instance@Table@Lua@LuaMadeSimple@RC@@QEBAAEBV234@XZ
    ?get_lua_state@Lua@LuaMadeSimple@RC@@QEBAPEAUlua_State@@XZ
    ?get_lua_state@LuaMod@RC@@QEBAPEAUlua_State@@XZ
    ?get_main_thread_id@LuaMod@RC@@QEBA?AVid@thread@std@@XZ
    ?get_metamethods@BaseObject@Type@LuaMadeSimple@RC@@QEAAAEAUMetaMethods@Lua@34@XZ
    ?get_metamethods@BaseObject@Type@LuaMadeSimple@RC@@QEBAAEBUMetaMethods@Lua@34@XZ
    ?get_metamethods@Table@Lua@LuaMadeSimple@RC@@QEAAAEAUMetaMethods@234@XZ
    ?get_metatable@Lua@LuaMadeSimple@RC@@QEBA?AVTable@123@PEBD@Z
    ?get_mod_ref@RC@@YAPEAVLuaMod@1@AEBVLua@LuaMadeSimple@1@@Z
    ?get_mods_directories@UE4SSProgram@RC@@QEAAAEAV?$vector@Vpath@filesystem@std@@V?$allocator@Vpath@filesystem@std@@@3@@std@@XZ
    ?get_mods_directory@UE4SSProgram@RC@@QEAA?AV?$basic_string@_WU?$char_traits@_W@std@@V?$allocator@_W@2@@std@@XZ
    ?get_mods_txt_entries@UE4SSProgram@RC@@QEAA?AV?$unordered_map@V?$basic_string@DU?$char_traits@D@std@@V?$allocator@D@2@@std@@_NU?$hash@V?$basic_string@DU?$char_traits@D@std@@V?$allocator@D@2@@std@@@2@U?$equal_to@V?$basic_string@DU?$char_traits@D@std@@V?$allocator@D@2@@std@@@2@V?$allocator@U?$pair@$$CBV?$basic_string@DU?$char_traits@D@std@@V?$allocator@D@2@@std@@_N@std@@@2@@std@@XZ
    ?get_module_directory@UE4SSProgram@RC@@QEAA?AV?$basic_string@_WU?$char_traits@_W@std@@V?$allocator@_W@2@@std@@XZ
    ?get_name@Mod@RC@@QEBA?AV?$basic_string_view@_WU?$char_traits@_W@std@@@std@@XZ
    ?get_number@?$LuaTableData@$0?0@LuaMadeSimple@RC@@QEBANXZ
    ?get_number@?$LuaTableData@$0?1@LuaMadeSimple@RC@@QEBANXZ
    ?get_number@Lua@LuaMadeSimple@RC@@QEBANH@Z
    ?get_number_ref@Registry@Lua@LuaMadeSimple@RC@@QEBAXH@Z
    ?get_object_name@BaseObject@Type@LuaMadeSimple@RC@@QEBAPEBDXZ
    ?get_operation@PusherParams@LuaType@RC@@QEBAPEBDXZ
    ?get_ordered_list@Parser@Ini@RC@@QEAA?AVList@23@AEBV?$basic_string@_WU?$char_traits@_W@std@@V?$allocator@_W@2@@std@@@Z
    ?get_path@Mod@RC@@QEBAAEBVpath@filesystem@std@@XZ
    ?get_program@Mod@RC@@QEAAAEAVUE4SSProgram@2@XZ
    ?get_program@Mod@RC@@QEBAAEBVUE4SSProgram@2@XZ
    ?get_program@UE4SSProgram@RC@@SAAEAV12@XZ
    ?get_raw_handle@WinFile@File@RC@@UEAAPEAXXZ
    ?get_ref@Value@Ini@RC@@QEBAPEBV123@XZ
    ?get_rules@Token@ParserBase@RC@@QEBAAEBV?$vector@V?$shared_ptr@VTokenRule@ParserBase@RC@@@std@@V?$allocator@V?$shared_ptr@VTokenRule@ParserBase@RC@@@std@@@2@@std@@XZ
    ?get_scripts_path@LuaMod@RC@@QEBAAEBVpath@filesystem@std@@XZ
    ?get_serialized_item@WinFile@File@RC@@UEAAPEAX_K_N@Z
    ?get_stack_dump@Lua@LuaMadeSimple@RC@@QEBA?AV?$basic_string@DU?$char_traits@D@std@@V?$allocator@D@2@@std@@PEBD@Z
    ?get_stack_dump@LuaMadeSimple@RC@@YA?AV?$basic_string@DU?$char_traits@D@std@@V?$allocator@D@2@@std@@PEAUlua_State@@PEBD@Z
    ?get_stack_dump@PusherParams@LuaType@RC@@QEBA?AV?$basic_string@DU?$char_traits@D@std@@V?$allocator@D@2@@std@@PEBD@Z
    ?get_stack_size@Lua@LuaMadeSimple@RC@@QEBAHXZ
    ?get_start@Token@ParserBase@RC@@QEBA_KXZ
    ?get_start_token_index_ref@TokenParser@ParserBase@RC@@AEBAAEA_KW4PeekDirection@123@W4Consume@123@AEA_K@Z
    ?get_string@?$LuaTableData@$0?0@LuaMadeSimple@RC@@QEBA?AV?$basic_string_view@DU?$char_traits@D@std@@@std@@XZ
    ?get_string@?$LuaTableData@$0?1@LuaMadeSimple@RC@@QEBA?AV?$basic_string_view@DU?$char_traits@D@std@@@std@@XZ
    ?get_string@Lua@LuaMadeSimple@RC@@QEBA?AV?$basic_string_view@DU?$char_traits@D@std@@@std@@H@Z
    ?get_string@Parser@Ini@RC@@QEBAAEBV?$basic_string@_WU?$char_traits@_W@std@@V?$allocator@_W@2@@std@@AEBV45@00@Z
    ?get_string@Parser@Ini@RC@@QEBAAEBV?$basic_string@_WU?$char_traits@_W@std@@V?$allocator@_W@2@@std@@AEBV45@0@Z
    ?get_string_field@Table@Lua@LuaMadeSimple@RC@@QEAA?AV?$basic_string_view@DU?$char_traits@D@std@@@std@@V56@PEA_N@Z
    ?get_string_ref@Registry@Lua@LuaMadeSimple@RC@@QEBAXH@Z
    ?get_string_value@Value@Ini@RC@@QEBAAEBV?$basic_string@_WU?$char_traits@_W@std@@V?$allocator@_W@2@@std@@XZ
    ?get_subscribed_keys@Handler@Input@RC@@QEBAAEBV?$array@_N$0PP@@std@@XZ
    ?get_table@Lua@LuaMadeSimple@RC@@QEBA?AVTable@123@XZ
    ?get_table_field@Table@Lua@LuaMadeSimple@RC@@QEAAAEAV1234@V?$basic_string_view@DU?$char_traits@D@std@@@std@@PEA_N@Z
    ?get_table_ref@Registry@Lua@LuaMadeSimple@RC@@QEBAXH@Z
    ?get_token@TokenParser@ParserBase@RC@@IEBAAEBVToken@23@_K@Z
    ?get_tokens@Tokenizer@ParserBase@RC@@QEBAAEBV?$vector@VToken@ParserBase@RC@@V?$allocator@VToken@ParserBase@RC@@@std@@@std@@XZ
    ?get_type@Token@ParserBase@RC@@QEBAHXZ
    ?get_type_string@Lua@LuaMadeSimple@RC@@QEBA?AV?$basic_string_view@DU?$char_traits@D@std@@@std@@XZ
    ?get_value@Parser@Ini@RC@@AEBA?AV?$optional@V?$reference_wrapper@$$CBVValue@Ini@RC@@@std@@@std@@AEBV?$basic_string@_WU?$char_traits@_W@std@@V?$allocator@_W@2@@5@0W4CanThrow@123@@Z
    ?get_working_directory@UE4SSProgram@RC@@QEAA?AV?$basic_string@_WU?$char_traits@_W@std@@V?$allocator@_W@2@@std@@XZ
    ?get_world_name@TypeChecker@Unreal@RC@@SA?AVFName@23@XZ
    ?handle_characters_token@TokenParser@Ini@RC@@AEAAXAEBVToken@ParserBase@3@@Z
    ?handle_closing_square_bracket_token@TokenParser@Ini@RC@@AEAAXAEBVToken@ParserBase@3@@Z
    ?handle_equals_token@TokenParser@Ini@RC@@AEAAXAEBVToken@ParserBase@3@@Z
    ?handle_error@Lua@LuaMadeSimple@RC@@QEBA?BV?$basic_string@DU?$char_traits@D@std@@V?$allocator@D@2@@std@@AEBV45@@Z
    ?handle_error@LuaMadeSimple@RC@@YA?BV?$basic_string@DU?$char_traits@D@std@@V?$allocator@D@2@@std@@PEAUlua_State@@AEBV34@@Z
    ?handle_new_line_token@TokenParser@Ini@RC@@AEAAXAEBVToken@ParserBase@3@@Z
    ?handle_opening_square_bracket_token@TokenParser@Ini@RC@@AEAAXAEBVToken@ParserBase@3@@Z
    ?handle_semi_colon_token@TokenParser@Ini@RC@@AEAAXAEBVToken@ParserBase@3@@Z
    ?handle_space_token@TokenParser@Ini@RC@@AEAAXAEBVToken@ParserBase@3@@Z
    ?has_data@Token@ParserBase@RC@@QEBA_NXZ
    ?has_event_on_key@Handler@Input@RC@@QEAA_NW4Key@23@@Z
    ?has_internal_error@Output@RC@@YA_NXZ
    ?has_optional_arg@DebugConsoleDevice@Output@RC@@UEBA_NXZ
    ?has_optional_arg@OutputDevice@Output@RC@@UEBA_NXZ
    ?has_userdata@Table@Lua@LuaMadeSimple@RC@@QEBA_NXZ
    ?init@Handler@Input@RC@@QEAAXXZ
    ?insert_mods_directory@UE4SSProgram@RC@@QEAAXAEBVpath@filesystem@std@@_J@Z
    ?insert_value@Lua@LuaMadeSimple@RC@@QEBAXHH@Z
    ?invalidate@FGuid@Unreal@RC@@QEAAXXZ
    ?invalidate_file@WinFile@File@RC@@UEAAXXZ
    ?invalidate_serialization@WinFile@File@RC@@UEAAXXZ
    ?is_bool@?$LuaTableData@$0?0@LuaMadeSimple@RC@@QEBA_NXZ
    ?is_bool@?$LuaTableData@$0?1@LuaMadeSimple@RC@@QEBA_NXZ
    ?is_bool@Lua@LuaMadeSimple@RC@@QEBA_NH@Z
    ?is_deserialized_and_live_equal@WinFile@File@RC@@UEAA_NXZ
    ?is_event_loop_thread@UE4SSProgram@RC@@QEAA_NXZ
    ?is_function@Lua@LuaMadeSimple@RC@@QEBA_NXZ
    ?is_global_function@Lua@LuaMadeSimple@RC@@QEBA_NV?$basic_string_view@DU?$char_traits@D@std@@@std@@@Z
    ?is_installable@Mod@RC@@QEBA_NXZ
    ?is_installed@Mod@RC@@QEBA_NXZ
    ?is_integer@?$LuaTableData@$0?0@LuaMadeSimple@RC@@QEBA_NXZ
    ?is_integer@?$LuaTableData@$0?1@LuaMadeSimple@RC@@QEBA_NXZ
    ?is_integer@Lua@LuaMadeSimple@RC@@QEBA_NH@Z
    ?is_keydown_event_registered@Handler@Input@RC@@QEAA_NW4Key@23@@Z
    ?is_keydown_event_registered@Handler@Input@RC@@QEAA_NW4Key@23@AEBV?$array@W4ModifierKey@Input@RC@@$0BD@@std@@@Z
    ?is_keydown_event_registered@UE4SSProgram@RC@@QEAA_NW4Key@Input@2@@Z
    ?is_keydown_event_registered@UE4SSProgram@RC@@QEAA_NW4Key@Input@2@AEBV?$array@W4ModifierKey@Input@RC@@$0BD@@std@@@Z
    ?is_nil@?$LuaTableData@$0?0@LuaMadeSimple@RC@@QEAA_NXZ
    ?is_nil@?$LuaTableData@$0?1@LuaMadeSimple@RC@@QEAA_NXZ
    ?is_nil@Lua@LuaMadeSimple@RC@@QEBA_NH@Z
    ?is_number@?$LuaTableData@$0?0@LuaMadeSimple@RC@@QEBA_NXZ
    ?is_number@?$LuaTableData@$0?1@LuaMadeSimple@RC@@QEBA_NXZ
    ?is_number@Lua@LuaMadeSimple@RC@@QEBA_NH@Z
    ?is_property@TypeChecker@Unreal@RC@@SA_NPEAVFField@23@@Z
    ?is_property@TypeChecker@Unreal@RC@@SA_NPEAVUObject@23@@Z
    ?is_queue_empty@UE4SSProgram@RC@@QEAA_NXZ
    ?is_same_as@WinFile@File@RC@@UEAA_NAEAV123@@Z
    ?is_started@Mod@RC@@QEBA_NXZ
    ?is_string@?$LuaTableData@$0?0@LuaMadeSimple@RC@@QEBA_NXZ
    ?is_string@?$LuaTableData@$0?1@LuaMadeSimple@RC@@QEBA_NXZ
    ?is_string@Lua@LuaMadeSimple@RC@@QEBA_NH@Z
    ?is_table@?$LuaTableData@$0?0@LuaMadeSimple@RC@@QEBA_NXZ
    ?is_table@?$LuaTableData@$0?1@LuaMadeSimple@RC@@QEBA_NXZ
    ?is_table@Lua@LuaMadeSimple@RC@@QEBA_NH@Z
    ?is_userdata@Lua@LuaMadeSimple@RC@@QEBA_NH@Z
    ?is_valid@FGuid@Unreal@RC@@QEBA_NXZ
    ?is_valid@WinFile@File@RC@@UEAA_NXZ
    ?is_valid_bool@Value@Ini@RC@@QEBA_NXZ
    ?is_valid_float@Value@Ini@RC@@QEBA_NXZ
    ?is_valid_int64@Value@Ini@RC@@QEBA_NXZ
    ?is_valid_string@Value@Ini@RC@@QEBA_NXZ
    ?lock@OutputDevice@Output@RC@@UEBAXXZ
    ?lua@LuaMod@RC@@QEBAAEBVLua@LuaMadeSimple@2@XZ
    ?m_input_sources_store@Handler@Input@RC@@0V?$unordered_map@V?$basic_string@DU?$char_traits@D@std@@V?$allocator@D@2@@std@@V?$shared_ptr@VPlatformInputSource@Input@RC@@@2@U?$hash@V?$basic_string@DU?$char_traits@D@std@@V?$allocator@D@2@@std@@@2@U?$equal_to@V?$basic_string@DU?$char_traits@D@std@@V?$allocator@D@2@@std@@@2@V?$allocator@U?$pair@$$CBV?$basic_string@DU?$char_traits@D@std@@V?$allocator@D@2@@std@@V?$shared_ptr@VPlatformInputSource@Input@RC@@@2@@std@@@2@@std@@A
    ?m_is_modular@SigScannerStaticData@RC@@2_NA
    ?m_modules_info@SigScannerStaticData@RC@@2VScanTargetArray@2@A
    ?m_multithreading_module_size_threshold@SinglePassScanner@RC@@2IA
    ?m_num_threads@SinglePassScanner@RC@@2IA
    ?m_scan_method@SinglePassScanner@RC@@2W4ScanMethod@12@A
    ?main_lua@LuaMod@RC@@QEBAPEBVLua@LuaMadeSimple@2@XZ
    ?make_compatible_path@UE4SSProgram@RC@@QEBA?AVpath@filesystem@std@@AEBV345@@Z
    ?make_global@Table@Lua@LuaMadeSimple@RC@@QEBAXV?$basic_string_view@DU?$char_traits@D@std@@@std@@@Z
    ?make_local@Table@Lua@LuaMadeSimple@RC@@QEAAXXZ
    ?make_ref@Registry@Lua@LuaMadeSimple@RC@@QEBAHXZ
    ?memory_map@WinFile@File@RC@@UEAA?AV?$span@E$0?0@std@@XZ
    ?new_state@LuaMadeSimple@RC@@YAAEAVLua@12@XZ
    ?new_thread@Lua@LuaMadeSimple@RC@@QEBAAEAV123@XZ
    ?on_cpp_mods_loaded@CppUserModBase@RC@@UEAAXXZ
    ?on_dll_load@CppUserModBase@RC@@UEAAXV?$basic_string_view@_WU?$char_traits@_W@std@@@std@@@Z
    ?on_lua_start@CppUserModBase@RC@@UEAAXAEAVLua@LuaMadeSimple@2@00AEAV?$vector@PEAVLua@LuaMadeSimple@RC@@V?$allocator@PEAVLua@LuaMadeSimple@RC@@@std@@@std@@@Z
    ?on_lua_start@CppUserModBase@RC@@UEAAXAEAVLua@LuaMadeSimple@2@00PEAV342@@Z
    ?on_lua_start@CppUserModBase@RC@@UEAAXV?$basic_string_view@_WU?$char_traits@_W@std@@@std@@AEAVLua@LuaMadeSimple@2@11AEAV?$vector@PEAVLua@LuaMadeSimple@RC@@V?$allocator@PEAVLua@LuaMadeSimple@RC@@@std@@@4@@Z
    ?on_lua_start@CppUserModBase@RC@@UEAAXV?$basic_string_view@_WU?$char_traits@_W@std@@@std@@AEAVLua@LuaMadeSimple@2@11PEAV562@@Z
    ?on_lua_stop@CppUserModBase@RC@@UEAAXAEAVLua@LuaMadeSimple@2@00AEAV?$vector@PEAVLua@LuaMadeSimple@RC@@V?$allocator@PEAVLua@LuaMadeSimple@RC@@@std@@@std@@@Z
    ?on_lua_stop@CppUserModBase@RC@@UEAAXAEAVLua@LuaMadeSimple@2@00PEAV342@@Z
    ?on_lua_stop@CppUserModBase@RC@@UEAAXV?$basic_string_view@_WU?$char_traits@_W@std@@@std@@AEAVLua@LuaMadeSimple@2@11AEAV?$vector@PEAVLua@LuaMadeSimple@RC@@V?$allocator@PEAVLua@LuaMadeSimple@RC@@@std@@@4@@Z
    ?on_lua_stop@CppUserModBase@RC@@UEAAXV?$basic_string_view@_WU?$char_traits@_W@std@@@std@@AEAVLua@LuaMadeSimple@2@11PEAV562@@Z
    ?on_program_start@CppUserModBase@RC@@UEAAXXZ
    ?on_ui_init@CppUserModBase@RC@@UEAAXXZ
    ?on_unreal_init@CppUserModBase@RC@@UEAAXXZ
    ?on_update@CppUserModBase@RC@@UEAAXXZ
    ?open@File@RC@@YA?AV?$HandleTemplate@VWinFile@File@RC@@@12@AEBVpath@filesystem@std@@W4OpenFor@12@W4OverwriteExistingFile@12@W4CreateIfNonExistent@12@@Z
    ?open_all_libs@Lua@LuaMadeSimple@RC@@QEBAXXZ
    ?open_file@WinFile@File@RC@@SA?AV123@AEBVpath@filesystem@std@@AEBUOpenProperties@23@@Z
    ?parse@Parser@Ini@RC@@QEAAXAEAV?$basic_string@_WU?$char_traits@_W@std@@V?$allocator@_W@2@@std@@@Z
    ?parse@Parser@Ini@RC@@QEAAXAEBV?$HandleTemplate@VWinFile@File@RC@@@File@3@@Z
    ?parse@TokenParser@ParserBase@RC@@QEAAXXZ
    ?parse_internal@Parser@Ini@RC@@AEAAXAEAV?$basic_string@_WU?$char_traits@_W@std@@V?$allocator@_W@2@@std@@@Z
    ?parse_semicolon_separated_string@UE4SSProgram@RC@@SA?AV?$vector@V?$basic_string@_WU?$char_traits@_W@std@@V?$allocator@_W@2@@std@@V?$allocator@V?$basic_string@_WU?$char_traits@_W@std@@V?$allocator@_W@2@@std@@@2@@std@@AEBV?$basic_string@_WU?$char_traits@_W@std@@V?$allocator@_W@2@@4@@Z
    ?parse_token@TokenParser@Ini@RC@@MEAAXAEBVToken@ParserBase@3@@Z
    ?peek@TokenParser@ParserBase@RC@@IEBAAEBVToken@23@HW4PeekDirection@123@@Z
    ?peek@TokenParser@ParserBase@RC@@IEBAAEBVToken@23@W4PeekDirection@123@@Z
    ?peek_and_ignore_until@TokenParser@ParserBase@RC@@IEBAAEBVToken@23@AEBV?$vector@HV?$allocator@H@std@@@std@@W4PeekDirection@123@@Z
    ?peek_and_ignore_until@TokenParser@ParserBase@RC@@IEBAAEBVToken@23@HW4PeekDirection@123@@Z
    ?peek_and_ignore_until_internal@TokenParser@ParserBase@RC@@AEBAAEBVToken@23@W4Consume@123@AEBV?$vector@HV?$allocator@H@std@@@std@@W4PeekDirection@123@@Z
    ?peek_continually@TokenParser@ParserBase@RC@@IEBA_NV?$function@$$A6A_NAEBVToken@ParserBase@RC@@@Z@std@@@Z
    ?peek_continually_internal@TokenParser@ParserBase@RC@@AEBA_NW4Consume@123@V?$function@$$A6A_NAEBVToken@ParserBase@RC@@@Z@std@@@Z
    ?peek_until@TokenParser@ParserBase@RC@@IEBAXAEBV?$vector@HV?$allocator@H@std@@@std@@V?$function@$$A6A_NAEBVToken@ParserBase@RC@@@Z@5@W4PeekDirection@123@@Z
    ?peek_until@TokenParser@ParserBase@RC@@IEBAXHV?$function@$$A6A_NAEBVToken@ParserBase@RC@@@Z@std@@W4PeekDirection@123@@Z
    ?peek_until_internal@TokenParser@ParserBase@RC@@AEBAXW4Consume@123@AEBV?$vector@HV?$allocator@H@std@@@std@@V?$function@$$A6A_NAEBVToken@ParserBase@RC@@@Z@6@W4PeekDirection@123@@Z
    ?prepare_function_call@Lua@LuaMadeSimple@RC@@QEBAXV?$basic_string_view@DU?$char_traits@D@std@@@std@@@Z
    ?prepare_new_metatable@Lua@LuaMadeSimple@RC@@QEBA?AVTable@123@PEBD@Z
    ?prepare_new_table@Lua@LuaMadeSimple@RC@@QEBA?AVTable@123@HH@Z
    ?process_event@Handler@Input@RC@@QEAAXXZ
    ?process_lua_function@LuaMadeSimple@RC@@YAHPEAUlua_State@@@Z
    ?push_ansistrproperty@LuaType@RC@@YAXAEBUPusherParams@12@@Z
    ?push_arrayproperty@LuaType@RC@@YAXAEBUPusherParams@12@@Z
    ?push_boolproperty@LuaType@RC@@YAXAEBUPusherParams@12@@Z
    ?push_byteproperty@LuaType@RC@@YAXAEBUPusherParams@12@@Z
    ?push_classproperty@LuaType@RC@@YAXAEBUPusherParams@12@@Z
    ?push_delegateproperty@LuaType@RC@@YAXAEBUPusherParams@12@@Z
    ?push_doubleproperty@LuaType@RC@@YAXAEBUPusherParams@12@@Z
    ?push_enumproperty@LuaType@RC@@YAXAEBUPusherParams@12@@Z
    ?push_field_name_and_value@Table@Lua@LuaMadeSimple@RC@@AEAAHV?$basic_string_view@DU?$char_traits@D@std@@@std@@@Z
    ?push_floatproperty@LuaType@RC@@YAXAEBUPusherParams@12@@Z
    ?push_functionproperty@LuaType@RC@@YAXAEBUFunctionPusherParams@12@@Z
    ?push_int16property@LuaType@RC@@YAXAEBUPusherParams@12@@Z
    ?push_int64property@LuaType@RC@@YAXAEBUPusherParams@12@@Z
    ?push_int8property@LuaType@RC@@YAXAEBUPusherParams@12@@Z
    ?push_interfaceproperty@LuaType@RC@@YAXAEBUPusherParams@12@@Z
    ?push_intproperty@LuaType@RC@@YAXAEBUPusherParams@12@@Z
    ?push_mapproperty@LuaType@RC@@YAXAEBUPusherParams@12@@Z
    ?push_multicastdelegateproperty@LuaType@RC@@YAXAEBUPusherParams@12@@Z
    ?push_multicastsparsedelegateproperty@LuaType@RC@@YAXAEBUPusherParams@12@@Z
    ?push_nameproperty@LuaType@RC@@YAXAEBUPusherParams@12@@Z
    ?push_objectproperty@LuaType@RC@@YAXAEBUPusherParams@12@@Z
    ?push_pcall_error_handler@LuaMadeSimple@RC@@YAHPEAUlua_State@@@Z
    ?push_setproperty@LuaType@RC@@YAXAEBUPusherParams@12@@Z
    ?push_softobjectproperty@LuaType@RC@@YAXAEBUPusherParams@12@@Z
    ?push_strproperty@LuaType@RC@@YAXAEBUPusherParams@12@@Z
    ?push_structproperty@LuaType@RC@@YAXAEBUPusherParams@12@@Z
    ?push_textproperty@LuaType@RC@@YAXAEBUPusherParams@12@@Z
    ?push_uint16property@LuaType@RC@@YAXAEBUPusherParams@12@@Z
    ?push_uint32property@LuaType@RC@@YAXAEBUPusherParams@12@@Z
    ?push_uint64property@LuaType@RC@@YAXAEBUPusherParams@12@@Z
    ?push_unhandledproperty@LuaType@RC@@YAXAEBUPusherParams@12@@Z
    ?push_utf8strproperty@LuaType@RC@@YAXAEBUPusherParams@12@@Z
    ?push_weakobjectproperty@LuaType@RC@@YAXAEBUPusherParams@12@@Z
    ?queue_event@UE4SSProgram@RC@@QEAAXP6AXPEAX@Z0@Z
    ?queue_event@UE4SSProgram@RC@@QEAAXV?$function@$$A6AXXZ@std@@@Z
    ?rawgeti@Lua@LuaMadeSimple@RC@@QEBAHH_J@Z
    ?read_all@WinFile@File@RC@@UEBA?AV?$basic_string@_WU?$char_traits@_W@std@@V?$allocator@_W@2@@std@@XZ
    ?receive@DebugConsoleDevice@Output@RC@@UEBAXV?$basic_string_view@_WU?$char_traits@_W@std@@@std@@@Z
    ?receive_with_optional_arg@DebugConsoleDevice@Output@RC@@UEBAXV?$basic_string_view@_WU?$char_traits@_W@std@@@std@@H@Z
    ?receive_with_optional_arg@OutputDevice@Output@RC@@UEBAXV?$basic_string_view@_WU?$char_traits@_W@std@@@std@@H@Z
    ?register_error_callback@LuaMadeSimple@RC@@YAXP6AXPEAUlua_State@@AEBV?$basic_string@DU?$char_traits@D@std@@V?$allocator@D@2@@std@@1@Z@Z
    ?register_function@Lua@LuaMadeSimple@RC@@QEBAXAEBV?$basic_string@DU?$char_traits@D@std@@V?$allocator@D@2@@std@@AEBQ6AHAEBV123@@Z@Z
    ?register_input_source@Handler@Input@RC@@CAXV?$shared_ptr@VPlatformInputSource@Input@RC@@@std@@@Z
    ?register_keydown_event@CppUserModBase@RC@@IEAAXW4Key@Input@2@AEBV?$array@W4ModifierKey@Input@RC@@$0BD@@std@@AEBV?$function@$$A6AXXZ@6@E@Z
    ?register_keydown_event@CppUserModBase@RC@@IEAAXW4Key@Input@2@AEBV?$function@$$A6AXXZ@std@@E@Z
    ?register_keydown_event@Handler@Input@RC@@QEAAXW4Key@23@AEBV?$array@W4ModifierKey@Input@RC@@$0BD@@std@@AEBV?$function@$$A6AXXZ@6@EPEAX@Z
    ?register_keydown_event@Handler@Input@RC@@QEAAXW4Key@23@V?$function@$$A6AXXZ@std@@EPEAX@Z
    ?register_keydown_event@UE4SSProgram@RC@@QEAAXW4Key@Input@2@AEBV?$array@W4ModifierKey@Input@RC@@$0BD@@std@@AEBV?$function@$$A6AXXZ@6@EPEAX@Z
    ?register_keydown_event@UE4SSProgram@RC@@QEAAXW4Key@Input@2@AEBV?$function@$$A6AXXZ@std@@EPEAX@Z
    ?register_post_function_process_callback@Lua@LuaMadeSimple@RC@@QEAAXP6AXAEBV123@@Z@Z
    ?register_tab@CppUserModBase@RC@@IEAAXV?$basic_string_view@_WU?$char_traits@_W@std@@@std@@P6AXPEAV12@@Z@Z
    ?registry@Lua@LuaMadeSimple@RC@@QEBAAEBVRegistry@123@XZ
    ?remove_gui_tab@UE4SSProgram@RC@@QEAAXV?$shared_ptr@VGUITab@GUI@RC@@@std@@@Z
    ?remove_mods_directory@UE4SSProgram@RC@@QEAAXAEBVpath@filesystem@std@@@Z
    ?render_tab@CppUserModBase@RC@@UEAAXXZ
    ?resolve_call@ASM@RC@@YAPEAXPEAX@Z
    ?resolve_function_address_from_potential_jmp@ASM@RC@@YAPEAXPEAX@Z
    ?resolve_jmp@ASM@RC@@YAPEAXPEAX@Z
    ?resolve_status_message@Lua@LuaMadeSimple@RC@@QEBA?AV?$basic_string@DU?$char_traits@D@std@@V?$allocator@D@2@@std@@H_N@Z
    ?s_next_mod_id@Mod@RC@@0U?$atomic@_K@std@@A
    ?scanner_work_thread@SinglePassScanner@RC@@SAXPEAE0AEAU_SYSTEM_INFO@@AEAV?$vector@VSignatureContainer@RC@@V?$allocator@VSignatureContainer@RC@@@std@@@std@@@Z
    ?scanner_work_thread_scalar@SinglePassScanner@RC@@SAXPEAE0AEAU_SYSTEM_INFO@@AEAV?$vector@VSignatureContainer@RC@@V?$allocator@VSignatureContainer@RC@@@std@@@std@@@Z
    ?scanner_work_thread_stdfind@SinglePassScanner@RC@@SAXPEAE0AEAU_SYSTEM_INFO@@AEAV?$vector@VSignatureContainer@RC@@V?$allocator@VSignatureContainer@RC@@@std@@@std@@@Z
    ?send@Output@RC@@YAXV?$basic_string_view@_WU?$char_traits@_W@std@@@std@@@Z
    ?serialization_file_exists@WinFile@File@RC@@QEAA_NXZ
    ?serialize_identifying_properties@WinFile@File@RC@@UEAAXXZ
    ?serialize_item@WinFile@File@RC@@UEAAXAEBUGenericItemData@23@_N@Z
    ?set_allow_input@Handler@Input@RC@@QEAAX_N@Z
    ?set_available_tokens@Tokenizer@ParserBase@RC@@QEAAX$$QEAVTokenContainer@23@@Z
    ?set_bool@Lua@LuaMadeSimple@RC@@QEBAX_N@Z
    ?set_default_log_level@DefaultTargets@Output@RC@@SAXH@Z
    ?set_end@Token@ParserBase@RC@@QEAAX_K@Z
    ?set_eof_token@TokenContainer@ParserBase@RC@@QEAAXH@Z
    ?set_file@WinFile@File@RC@@QEAAXPEAX@Z
    ?set_float@Lua@LuaMadeSimple@RC@@QEBAXM@Z
    ?set_formatter@OutputDevice@Output@RC@@QEAAXP6A?AV?$basic_string@_WU?$char_traits@_W@std@@V?$allocator@_W@2@@std@@V?$basic_string_view@_WU?$char_traits@_W@std@@@5@@Z@Z
    ?set_has_data@Token@ParserBase@RC@@QEAAXW4HasData@123@@Z
    ?set_has_userdata@Table@Lua@LuaMadeSimple@RC@@QEAAX_N@Z
    ?set_hook@Lua@LuaMadeSimple@RC@@QEBAXP6AXPEAUlua_State@@PEAUlua_Debug@@@ZHH@Z
    ?set_input_source@Handler@Input@RC@@QEAA_NV?$basic_string@DU?$char_traits@D@std@@V?$allocator@D@2@@std@@@Z
    ?set_installable@Mod@RC@@QEAAX_N@Z
    ?set_installed@Mod@RC@@QEAAX_N@Z
    ?set_integer@Lua@LuaMadeSimple@RC@@QEBAX_J@Z
    ?set_is_file_open@WinFile@File@RC@@QEAAX_N@Z
    ?set_nil@Lua@LuaMadeSimple@RC@@QEBAXXZ
    ?set_number@Lua@LuaMadeSimple@RC@@QEBAXN@Z
    ?set_ref@Value@Ini@RC@@QEAAXPEBV123@@Z
    ?set_serialization_output_file@WinFile@File@RC@@UEAAXAEBVpath@filesystem@std@@@Z
    ?set_start@Token@ParserBase@RC@@QEAAX_K@Z
    ?set_string@Lua@LuaMadeSimple@RC@@QEBAXPEBD_K@Z
    ?set_string@Lua@LuaMadeSimple@RC@@QEBAXPEBE_K@Z
    ?set_string@Lua@LuaMadeSimple@RC@@QEBAXV?$basic_string_view@DU?$char_traits@D@std@@@std@@@Z
    ?set_windows_console_out_mode_if_needed@DebugConsoleDevice@Output@RC@@AEBAXXZ
    ?settings_manager@UE4SSProgram@RC@@2VSettingsManager@2@A
    ?start_scan@SinglePassScanner@RC@@SAXAEAV?$unordered_map@W4ScanTarget@RC@@V?$vector@VSignatureContainer@RC@@V?$allocator@VSignatureContainer@RC@@@std@@@std@@U?$hash@W4ScanTarget@RC@@@4@U?$equal_to@W4ScanTarget@RC@@@4@V?$allocator@U?$pair@$$CBW4ScanTarget@RC@@V?$vector@VSignatureContainer@RC@@V?$allocator@VSignatureContainer@RC@@@std@@@std@@@std@@@4@@std@@@Z
    ?status_to_string@Lua@LuaMadeSimple@RC@@QEBA?AV?$basic_string_view@DU?$char_traits@D@std@@@std@@H@Z
    ?store_all_object_names@TypeChecker@Unreal@RC@@SAXXZ
    ?store_all_object_types@TypeChecker@Unreal@RC@@SA_NXZ
    ?string_scan@SinglePassScanner@RC@@SAPEAXV?$basic_string_view@_WU?$char_traits@_W@std@@@std@@W4ScanTarget@2@@Z
    ?string_to_key@Input@RC@@YA?AW4Key@12@AEBV?$basic_string@_WU?$char_traits@_W@std@@V?$allocator@_W@2@@std@@@Z
    ?string_to_vector@SinglePassScanner@RC@@CA?AV?$vector@HV?$allocator@H@std@@@std@@V?$basic_string_view@DU?$char_traits@D@std@@@4@@Z
    ?string_to_vector@SinglePassScanner@RC@@CA?AV?$vector@V?$vector@HV?$allocator@H@std@@@std@@V?$allocator@V?$vector@HV?$allocator@H@std@@@std@@@2@@std@@AEBV?$vector@USignatureData@RC@@V?$allocator@USignatureData@RC@@@std@@@4@@Z
    ?throw_error@Lua@LuaMadeSimple@RC@@QEBAXAEBV?$basic_string@DU?$char_traits@D@std@@V?$allocator@D@2@@std@@@Z
    ?throw_error@LuaMadeSimple@RC@@YAXPEAUlua_State@@AEBV?$basic_string@DU?$char_traits@D@std@@V?$allocator@D@2@@std@@@Z
    ?throw_error_internal_append_args@PusherParams@LuaType@RC@@QEBAXAEAV?$basic_string@DU?$char_traits@D@std@@V?$allocator@D@2@@std@@@Z
    ?to_string@Token@ParserBase@RC@@QEBA?AV?$basic_string@_WU?$char_traits@_W@std@@V?$allocator@_W@2@@std@@XZ
    ?to_string@TokenRule@ParserBase@RC@@UEBA?AV?$basic_string@_WU?$char_traits@_W@std@@V?$allocator@_W@2@@std@@XZ
    ?tokenize@Tokenizer@ParserBase@RC@@QEAAXAEBV?$basic_string@_WU?$char_traits@_W@std@@V?$allocator@_W@2@@std@@@Z
    ?unlock@OutputDevice@Output@RC@@UEBAXXZ
    ?unregister_error_callback@LuaMadeSimple@RC@@YAXP6AXPEAUlua_State@@AEBV?$basic_string@DU?$char_traits@D@std@@V?$allocator@D@2@@std@@1@Z@Z
    ?update_async@Mod@RC@@UEAAXXZ
    ?value@?$IsTInlineAllocatorHelper@V?$TSizedDefaultAllocator@$0CA@@Unreal@RC@@@Unreal@RC@@2_NB
    ?write_string_to_file@WinFile@File@RC@@UEAAXV?$basic_string_view@_WU?$char_traits@_W@std@@@std@@@Z
